
ADCSPI.elf:     file format elf32-littlearm

Sections:
Idx Name          Size      VMA       LMA       File off  Algn
  0 .text         000018dc  00400000  00400000  00010000  2**2
                  CONTENTS, ALLOC, LOAD, READONLY, CODE
  1 .relocate     00000104  20400000  004018dc  00020000  2**2
                  CONTENTS, ALLOC, LOAD, DATA
  2 .bss          00001160  20400104  004019e0  00020104  2**2
                  ALLOC
  3 .heap         00000204  20401264  00402b40  00020104  2**0
                  ALLOC
  4 .stack        00000400  20401468  00402d44  00020104  2**0
                  ALLOC
  5 .ARM.attributes 0000002e  00000000  00000000  00020104  2**0
                  CONTENTS, READONLY
  6 .comment      00000059  00000000  00000000  00020132  2**0
                  CONTENTS, READONLY
  7 .debug_info   000122a6  00000000  00000000  0002018b  2**0
                  CONTENTS, READONLY, DEBUGGING
  8 .debug_abbrev 00002b5a  00000000  00000000  00032431  2**0
                  CONTENTS, READONLY, DEBUGGING
  9 .debug_loc    00008037  00000000  00000000  00034f8b  2**0
                  CONTENTS, READONLY, DEBUGGING
 10 .debug_aranges 00000a08  00000000  00000000  0003cfc2  2**0
                  CONTENTS, READONLY, DEBUGGING
 11 .debug_ranges 000009b8  00000000  00000000  0003d9ca  2**0
                  CONTENTS, READONLY, DEBUGGING
 12 .debug_macro  0003dd0b  00000000  00000000  0003e382  2**0
                  CONTENTS, READONLY, DEBUGGING
 13 .debug_line   00011cb0  00000000  00000000  0007c08d  2**0
                  CONTENTS, READONLY, DEBUGGING
 14 .debug_str    00143384  00000000  00000000  0008dd3d  2**0
                  CONTENTS, READONLY, DEBUGGING
 15 .debug_frame  00001a50  00000000  00000000  001d10c4  2**2
                  CONTENTS, READONLY, DEBUGGING

Disassembly of section .text:

00400000 <exception_table>:
  400000:	68 18 40 20 e5 01 40 00 e1 01 40 00 e1 01 40 00     h.@ ..@...@...@.
  400010:	e1 01 40 00 e1 01 40 00 e1 01 40 00 00 00 00 00     ..@...@...@.....
	...
  40002c:	e1 01 40 00 e1 01 40 00 00 00 00 00 e1 01 40 00     ..@...@.......@.
  40003c:	e1 01 40 00 e1 01 40 00 e1 01 40 00 e1 01 40 00     ..@...@...@...@.
  40004c:	e1 01 40 00 e1 01 40 00 e1 01 40 00 e1 01 40 00     ..@...@...@...@.
  40005c:	e1 01 40 00 e1 01 40 00 00 00 00 00 e1 01 40 00     ..@...@.......@.
  40006c:	e1 01 40 00 e1 01 40 00 e1 01 40 00 75 14 40 00     ..@...@...@.u.@.
  40007c:	e1 01 40 00 e1 01 40 00 e1 01 40 00 e1 01 40 00     ..@...@...@...@.
  40008c:	e1 01 40 00 e1 01 40 00 e1 01 40 00 e1 01 40 00     ..@...@...@...@.
  40009c:	89 10 40 00 e1 01 40 00 e1 01 40 00 e1 01 40 00     ..@...@...@...@.
  4000ac:	e1 01 40 00 e1 01 40 00 e1 01 40 00 e1 01 40 00     ..@...@...@...@.
  4000bc:	e1 01 40 00 e1 01 40 00 e1 01 40 00 e1 01 40 00     ..@...@...@...@.
  4000cc:	e1 01 40 00 e1 01 40 00 e1 01 40 00 e1 01 40 00     ..@...@...@...@.
  4000dc:	e1 01 40 00 e1 01 40 00 e1 01 40 00 e1 01 40 00     ..@...@...@...@.
  4000ec:	e1 01 40 00 e1 01 40 00 e1 01 40 00 e1 01 40 00     ..@...@...@...@.
  4000fc:	e1 01 40 00 e1 01 40 00 e1 01 40 00 e1 01 40 00     ..@...@...@...@.
  40010c:	e1 01 40 00 e1 01 40 00 e1 01 40 00 00 00 00 00     ..@...@...@.....
  40011c:	00 00 00 00 e1 01 40 00 e1 01 40 00 e1 01 40 00     ......@...@...@.
  40012c:	e1 01 40 00 e1 01 40 00 e1 01 40 00 e1 01 40 00     ..@...@...@...@.
  40013c:	e1 01 40 00 e1 01 40 00 e1 01 40 00 e1 01 40 00     ..@...@...@...@.
  40014c:	e1 01 40 00 e1 01 40 00 e1 01 40 00 e1 01 40 00     ..@...@...@...@.
  40015c:	e1 01 40 00 e1 01 40 00 e1 01 40 00                 ..@...@...@.

00400168 <__do_global_dtors_aux>:
  400168:	b510      	push	{r4, lr}
  40016a:	4c05      	ldr	r4, [pc, #20]	; (400180 <__do_global_dtors_aux+0x18>)
  40016c:	7823      	ldrb	r3, [r4, #0]
  40016e:	b933      	cbnz	r3, 40017e <__do_global_dtors_aux+0x16>
  400170:	4b04      	ldr	r3, [pc, #16]	; (400184 <__do_global_dtors_aux+0x1c>)
  400172:	b113      	cbz	r3, 40017a <__do_global_dtors_aux+0x12>
  400174:	4804      	ldr	r0, [pc, #16]	; (400188 <__do_global_dtors_aux+0x20>)
  400176:	f3af 8000 	nop.w
  40017a:	2301      	movs	r3, #1
  40017c:	7023      	strb	r3, [r4, #0]
  40017e:	bd10      	pop	{r4, pc}
  400180:	20400104 	.word	0x20400104
  400184:	00000000 	.word	0x00000000
  400188:	004018dc 	.word	0x004018dc

0040018c <frame_dummy>:
  40018c:	4b0c      	ldr	r3, [pc, #48]	; (4001c0 <frame_dummy+0x34>)
  40018e:	b143      	cbz	r3, 4001a2 <frame_dummy+0x16>
  400190:	480c      	ldr	r0, [pc, #48]	; (4001c4 <frame_dummy+0x38>)
  400192:	490d      	ldr	r1, [pc, #52]	; (4001c8 <frame_dummy+0x3c>)
  400194:	b510      	push	{r4, lr}
  400196:	f3af 8000 	nop.w
  40019a:	480c      	ldr	r0, [pc, #48]	; (4001cc <frame_dummy+0x40>)
  40019c:	6803      	ldr	r3, [r0, #0]
  40019e:	b923      	cbnz	r3, 4001aa <frame_dummy+0x1e>
  4001a0:	bd10      	pop	{r4, pc}
  4001a2:	480a      	ldr	r0, [pc, #40]	; (4001cc <frame_dummy+0x40>)
  4001a4:	6803      	ldr	r3, [r0, #0]
  4001a6:	b933      	cbnz	r3, 4001b6 <frame_dummy+0x2a>
  4001a8:	4770      	bx	lr
  4001aa:	4b09      	ldr	r3, [pc, #36]	; (4001d0 <frame_dummy+0x44>)
  4001ac:	2b00      	cmp	r3, #0
  4001ae:	d0f7      	beq.n	4001a0 <frame_dummy+0x14>
  4001b0:	e8bd 4010 	ldmia.w	sp!, {r4, lr}
  4001b4:	4718      	bx	r3
  4001b6:	4b06      	ldr	r3, [pc, #24]	; (4001d0 <frame_dummy+0x44>)
  4001b8:	2b00      	cmp	r3, #0
  4001ba:	d0f5      	beq.n	4001a8 <frame_dummy+0x1c>
  4001bc:	4718      	bx	r3
  4001be:	bf00      	nop
  4001c0:	00000000 	.word	0x00000000
  4001c4:	004018dc 	.word	0x004018dc
  4001c8:	20400108 	.word	0x20400108
  4001cc:	004018dc 	.word	0x004018dc
  4001d0:	00000000 	.word	0x00000000

004001d4 <atmel_start_init>:

/**
 * Initializes MCU, drivers and middleware in the project
 **/
void atmel_start_init(void)
{
  4001d4:	b508      	push	{r3, lr}
	system_init();
  4001d6:	4b01      	ldr	r3, [pc, #4]	; (4001dc <atmel_start_init+0x8>)
  4001d8:	4798      	blx	r3
  4001da:	bd08      	pop	{r3, pc}
  4001dc:	00400409 	.word	0x00400409

004001e0 <Dummy_Handler>:

/**
 * \brief Default interrupt handler for unused IRQs.
 */
void Dummy_Handler(void)
{
  4001e0:	e7fe      	b.n	4001e0 <Dummy_Handler>
	...

004001e4 <Reset_Handler>:
{
  4001e4:	b508      	push	{r3, lr}
        if (pSrc != pDest) {
  4001e6:	4b10      	ldr	r3, [pc, #64]	; (400228 <Reset_Handler+0x44>)
  4001e8:	4a10      	ldr	r2, [pc, #64]	; (40022c <Reset_Handler+0x48>)
  4001ea:	429a      	cmp	r2, r3
  4001ec:	d009      	beq.n	400202 <Reset_Handler+0x1e>
  4001ee:	4b0e      	ldr	r3, [pc, #56]	; (400228 <Reset_Handler+0x44>)
  4001f0:	4a0e      	ldr	r2, [pc, #56]	; (40022c <Reset_Handler+0x48>)
  4001f2:	e003      	b.n	4001fc <Reset_Handler+0x18>
                        *pDest++ = *pSrc++;
  4001f4:	6811      	ldr	r1, [r2, #0]
  4001f6:	6019      	str	r1, [r3, #0]
  4001f8:	3304      	adds	r3, #4
  4001fa:	3204      	adds	r2, #4
                for (; pDest < &_erelocate;) {
  4001fc:	490c      	ldr	r1, [pc, #48]	; (400230 <Reset_Handler+0x4c>)
  4001fe:	428b      	cmp	r3, r1
  400200:	d3f8      	bcc.n	4001f4 <Reset_Handler+0x10>
                        *pDest++ = *pSrc++;
  400202:	4b0c      	ldr	r3, [pc, #48]	; (400234 <Reset_Handler+0x50>)
  400204:	e002      	b.n	40020c <Reset_Handler+0x28>
                *pDest++ = 0;
  400206:	2200      	movs	r2, #0
  400208:	601a      	str	r2, [r3, #0]
  40020a:	3304      	adds	r3, #4
        for (pDest = &_szero; pDest < &_ezero;) {
  40020c:	4a0a      	ldr	r2, [pc, #40]	; (400238 <Reset_Handler+0x54>)
  40020e:	4293      	cmp	r3, r2
  400210:	d3f9      	bcc.n	400206 <Reset_Handler+0x22>
        SCB->VTOR = ((uint32_t) pSrc & SCB_VTOR_TBLOFF_Msk);
  400212:	4a0a      	ldr	r2, [pc, #40]	; (40023c <Reset_Handler+0x58>)
  400214:	4b0a      	ldr	r3, [pc, #40]	; (400240 <Reset_Handler+0x5c>)
  400216:	f023 037f 	bic.w	r3, r3, #127	; 0x7f
  40021a:	6093      	str	r3, [r2, #8]
        __libc_init_array();
  40021c:	4b09      	ldr	r3, [pc, #36]	; (400244 <Reset_Handler+0x60>)
  40021e:	4798      	blx	r3
        main();
  400220:	4b09      	ldr	r3, [pc, #36]	; (400248 <Reset_Handler+0x64>)
  400222:	4798      	blx	r3
  400224:	e7fe      	b.n	400224 <Reset_Handler+0x40>
  400226:	bf00      	nop
  400228:	20400000 	.word	0x20400000
  40022c:	004018dc 	.word	0x004018dc
  400230:	20400104 	.word	0x20400104
  400234:	20400104 	.word	0x20400104
  400238:	20401264 	.word	0x20401264
  40023c:	e000ed00 	.word	0xe000ed00
  400240:	00400000 	.word	0x00400000
  400244:	00401719 	.word	0x00401719
  400248:	004015e1 	.word	0x004015e1

0040024c <TIMER_0_init>:
 * \brief Timer initialization function
 *
 * Enables Timer peripheral, clocks and initializes Timer driver
 */
static void TIMER_0_init(void)
{
  40024c:	b508      	push	{r3, lr}
}

static inline hri_pmc_pcsr0_reg_t hri_pmc_get_PCSR0_reg(const void *const hw, hri_pmc_pcsr0_reg_t mask)
{
	uint32_t tmp;
	tmp = ((Pmc *)hw)->PMC_PCSR0;
  40024e:	4b08      	ldr	r3, [pc, #32]	; (400270 <TIMER_0_init+0x24>)
  400250:	699b      	ldr	r3, [r3, #24]
 *
 */
static inline void _pmc_enable_periph_clock(uint32_t periph_id)
{
	if (periph_id < 32) {
		if (!hri_pmc_get_PCSR0_reg(PMC, (1 << periph_id))) {
  400252:	f413 0f00 	tst.w	r3, #8388608	; 0x800000
  400256:	d103      	bne.n	400260 <TIMER_0_init+0x14>
	((Pmc *)hw)->PMC_PCER0 = mask;
  400258:	f44f 0200 	mov.w	r2, #8388608	; 0x800000
  40025c:	4b04      	ldr	r3, [pc, #16]	; (400270 <TIMER_0_init+0x24>)
  40025e:	611a      	str	r2, [r3, #16]
	_pmc_enable_periph_clock(ID_TC0_CHANNEL0);
	TIMER_0_PORT_init();
	timer_init(&TIMER_0, TC0, _tc_get_timer());
  400260:	4b04      	ldr	r3, [pc, #16]	; (400274 <TIMER_0_init+0x28>)
  400262:	4798      	blx	r3
  400264:	4602      	mov	r2, r0
  400266:	4904      	ldr	r1, [pc, #16]	; (400278 <TIMER_0_init+0x2c>)
  400268:	4804      	ldr	r0, [pc, #16]	; (40027c <TIMER_0_init+0x30>)
  40026a:	4b05      	ldr	r3, [pc, #20]	; (400280 <TIMER_0_init+0x34>)
  40026c:	4798      	blx	r3
  40026e:	bd08      	pop	{r3, pc}
  400270:	400e0600 	.word	0x400e0600
  400274:	00401085 	.word	0x00401085
  400278:	4000c000 	.word	0x4000c000
  40027c:	204002a8 	.word	0x204002a8
  400280:	00400721 	.word	0x00400721

00400284 <SPI_0_PORT_init>:
}

static inline void hri_pio_set_ABCDSR_reg(const void *const hw, uint8_t index, hri_pio_abcdsr_reg_t mask)
{
	PIO_CRITICAL_SECTION_ENTER();
	((Pio *)hw)->PIO_ABCDSR[index] |= mask;
  400284:	4b11      	ldr	r3, [pc, #68]	; (4002cc <SPI_0_PORT_init+0x48>)
  400286:	6f1a      	ldr	r2, [r3, #112]	; 0x70
  400288:	f442 1280 	orr.w	r2, r2, #1048576	; 0x100000
  40028c:	671a      	str	r2, [r3, #112]	; 0x70
}

static inline void hri_pio_clear_ABCDSR_reg(const void *const hw, uint8_t index, hri_pio_abcdsr_reg_t mask)
{
	PIO_CRITICAL_SECTION_ENTER();
	((Pio *)hw)->PIO_ABCDSR[index] &= ~mask;
  40028e:	6f5a      	ldr	r2, [r3, #116]	; 0x74
  400290:	f422 1280 	bic.w	r2, r2, #1048576	; 0x100000
  400294:	675a      	str	r2, [r3, #116]	; 0x74
	((Pio *)hw)->PIO_PDR = mask;
  400296:	f44f 1280 	mov.w	r2, #1048576	; 0x100000
  40029a:	605a      	str	r2, [r3, #4]
	((Pio *)hw)->PIO_ABCDSR[index] |= mask;
  40029c:	6f1a      	ldr	r2, [r3, #112]	; 0x70
  40029e:	f442 1200 	orr.w	r2, r2, #2097152	; 0x200000
  4002a2:	671a      	str	r2, [r3, #112]	; 0x70
	((Pio *)hw)->PIO_ABCDSR[index] &= ~mask;
  4002a4:	6f5a      	ldr	r2, [r3, #116]	; 0x74
  4002a6:	f422 1200 	bic.w	r2, r2, #2097152	; 0x200000
  4002aa:	675a      	str	r2, [r3, #116]	; 0x74
	((Pio *)hw)->PIO_PDR = mask;
  4002ac:	f44f 1200 	mov.w	r2, #2097152	; 0x200000
  4002b0:	605a      	str	r2, [r3, #4]
	((Pio *)hw)->PIO_ABCDSR[index] |= mask;
  4002b2:	6f1a      	ldr	r2, [r3, #112]	; 0x70
  4002b4:	f442 0280 	orr.w	r2, r2, #4194304	; 0x400000
  4002b8:	671a      	str	r2, [r3, #112]	; 0x70
	((Pio *)hw)->PIO_ABCDSR[index] &= ~mask;
  4002ba:	6f5a      	ldr	r2, [r3, #116]	; 0x74
  4002bc:	f422 0280 	bic.w	r2, r2, #4194304	; 0x400000
  4002c0:	675a      	str	r2, [r3, #116]	; 0x74
	((Pio *)hw)->PIO_PDR = mask;
  4002c2:	f44f 0280 	mov.w	r2, #4194304	; 0x400000
  4002c6:	605a      	str	r2, [r3, #4]
  4002c8:	4770      	bx	lr
  4002ca:	bf00      	nop
  4002cc:	400e1400 	.word	0x400e1400

004002d0 <SPI_0_CLOCK_init>:
	tmp = ((Pmc *)hw)->PMC_PCSR0;
  4002d0:	4b04      	ldr	r3, [pc, #16]	; (4002e4 <SPI_0_CLOCK_init+0x14>)
  4002d2:	699b      	ldr	r3, [r3, #24]
  4002d4:	f413 1f00 	tst.w	r3, #2097152	; 0x200000
  4002d8:	d103      	bne.n	4002e2 <SPI_0_CLOCK_init+0x12>
	((Pmc *)hw)->PMC_PCER0 = mask;
  4002da:	f44f 1200 	mov.w	r2, #2097152	; 0x200000
  4002de:	4b01      	ldr	r3, [pc, #4]	; (4002e4 <SPI_0_CLOCK_init+0x14>)
  4002e0:	611a      	str	r2, [r3, #16]
  4002e2:	4770      	bx	lr
  4002e4:	400e0600 	.word	0x400e0600

004002e8 <SPI_0_init>:
{
  4002e8:	b510      	push	{r4, lr}
	SPI_0_CLOCK_init();
  4002ea:	4b08      	ldr	r3, [pc, #32]	; (40030c <SPI_0_init+0x24>)
  4002ec:	4798      	blx	r3
	spi_m_sync_set_func_ptr(&SPI_0, _spi_get_spi_m_sync());
  4002ee:	4b08      	ldr	r3, [pc, #32]	; (400310 <SPI_0_init+0x28>)
  4002f0:	4798      	blx	r3
  4002f2:	4c08      	ldr	r4, [pc, #32]	; (400314 <SPI_0_init+0x2c>)
  4002f4:	4601      	mov	r1, r0
  4002f6:	4620      	mov	r0, r4
  4002f8:	4b07      	ldr	r3, [pc, #28]	; (400318 <SPI_0_init+0x30>)
  4002fa:	4798      	blx	r3
	spi_m_sync_init(&SPI_0, SPI0);
  4002fc:	4907      	ldr	r1, [pc, #28]	; (40031c <SPI_0_init+0x34>)
  4002fe:	4620      	mov	r0, r4
  400300:	4b07      	ldr	r3, [pc, #28]	; (400320 <SPI_0_init+0x38>)
  400302:	4798      	blx	r3
	SPI_0_PORT_init();
  400304:	4b07      	ldr	r3, [pc, #28]	; (400324 <SPI_0_init+0x3c>)
  400306:	4798      	blx	r3
  400308:	bd10      	pop	{r4, pc}
  40030a:	bf00      	nop
  40030c:	004002d1 	.word	0x004002d1
  400310:	00400f35 	.word	0x00400f35
  400314:	20400240 	.word	0x20400240
  400318:	004004ed 	.word	0x004004ed
  40031c:	40008000 	.word	0x40008000
  400320:	0040050d 	.word	0x0040050d
  400324:	00400285 	.word	0x00400285

00400328 <RAND_0_CLOCK_init>:
}

static inline hri_pmc_pcsr1_reg_t hri_pmc_get_PCSR1_reg(const void *const hw, hri_pmc_pcsr1_reg_t mask)
{
	uint32_t tmp;
	tmp = ((Pmc *)hw)->PMC_PCSR1;
  400328:	4b05      	ldr	r3, [pc, #20]	; (400340 <RAND_0_CLOCK_init+0x18>)
  40032a:	f8d3 3108 	ldr.w	r3, [r3, #264]	; 0x108
			hri_pmc_set_PCSR0_reg(PMC, (1 << periph_id));
		}
	} else if (periph_id < 64) {
		periph_id -= 32;
		if (!hri_pmc_get_PCSR1_reg(PMC, (1 << periph_id))) {
  40032e:	f013 7f00 	tst.w	r3, #33554432	; 0x2000000
  400332:	d104      	bne.n	40033e <RAND_0_CLOCK_init+0x16>
	((Pmc *)hw)->PMC_PCER1 = mask;
  400334:	f04f 7200 	mov.w	r2, #33554432	; 0x2000000
  400338:	4b01      	ldr	r3, [pc, #4]	; (400340 <RAND_0_CLOCK_init+0x18>)
  40033a:	f8c3 2100 	str.w	r2, [r3, #256]	; 0x100
  40033e:	4770      	bx	lr
  400340:	400e0600 	.word	0x400e0600

00400344 <RAND_0_init>:
{
	_pmc_enable_periph_clock(ID_TRNG);
}

void RAND_0_init(void)
{
  400344:	b508      	push	{r3, lr}
	RAND_0_CLOCK_init();
  400346:	4b03      	ldr	r3, [pc, #12]	; (400354 <RAND_0_init+0x10>)
  400348:	4798      	blx	r3
	rand_sync_init(&RAND_0, TRNG);
  40034a:	4903      	ldr	r1, [pc, #12]	; (400358 <RAND_0_init+0x14>)
  40034c:	4803      	ldr	r0, [pc, #12]	; (40035c <RAND_0_init+0x18>)
  40034e:	4b04      	ldr	r3, [pc, #16]	; (400360 <RAND_0_init+0x1c>)
  400350:	4798      	blx	r3
  400352:	bd08      	pop	{r3, pc}
  400354:	00400329 	.word	0x00400329
  400358:	40070000 	.word	0x40070000
  40035c:	20400238 	.word	0x20400238
  400360:	004004c1 	.word	0x004004c1

00400364 <USART_0_CLOCK_init>:
	tmp = ((Pmc *)hw)->PMC_PCSR0;
  400364:	4b04      	ldr	r3, [pc, #16]	; (400378 <USART_0_CLOCK_init+0x14>)
  400366:	699b      	ldr	r3, [r3, #24]
		if (!hri_pmc_get_PCSR0_reg(PMC, (1 << periph_id))) {
  400368:	f413 4f80 	tst.w	r3, #16384	; 0x4000
  40036c:	d103      	bne.n	400376 <USART_0_CLOCK_init+0x12>
	((Pmc *)hw)->PMC_PCER0 = mask;
  40036e:	f44f 4280 	mov.w	r2, #16384	; 0x4000
  400372:	4b01      	ldr	r3, [pc, #4]	; (400378 <USART_0_CLOCK_init+0x14>)
  400374:	611a      	str	r2, [r3, #16]
  400376:	4770      	bx	lr
  400378:	400e0600 	.word	0x400e0600

0040037c <USART_0_PORT_init>:
	((Pio *)hw)->PIO_ABCDSR[index] &= ~mask;
  40037c:	4b0f      	ldr	r3, [pc, #60]	; (4003bc <USART_0_PORT_init+0x40>)
  40037e:	6f1a      	ldr	r2, [r3, #112]	; 0x70
  400380:	f422 1200 	bic.w	r2, r2, #2097152	; 0x200000
  400384:	671a      	str	r2, [r3, #112]	; 0x70
  400386:	6f5a      	ldr	r2, [r3, #116]	; 0x74
  400388:	f422 1200 	bic.w	r2, r2, #2097152	; 0x200000
  40038c:	675a      	str	r2, [r3, #116]	; 0x74
	((Pio *)hw)->PIO_PDR = mask;
  40038e:	f44f 1200 	mov.w	r2, #2097152	; 0x200000
  400392:	605a      	str	r2, [r3, #4]
}

static inline void hri_matrix_set_CCFG_SYSIO_reg(const void *const hw, hri_matrix_ccfg_sysio_reg_t mask)
{
	MATRIX_CRITICAL_SECTION_ENTER();
	((Matrix *)hw)->CCFG_SYSIO |= mask;
  400394:	4a0a      	ldr	r2, [pc, #40]	; (4003c0 <USART_0_PORT_init+0x44>)
  400396:	f8d2 3114 	ldr.w	r3, [r2, #276]	; 0x114
  40039a:	f043 0310 	orr.w	r3, r3, #16
  40039e:	f8c2 3114 	str.w	r3, [r2, #276]	; 0x114
	((Pio *)hw)->PIO_ABCDSR[index] |= mask;
  4003a2:	4b08      	ldr	r3, [pc, #32]	; (4003c4 <USART_0_PORT_init+0x48>)
  4003a4:	6f1a      	ldr	r2, [r3, #112]	; 0x70
  4003a6:	f042 0210 	orr.w	r2, r2, #16
  4003aa:	671a      	str	r2, [r3, #112]	; 0x70
  4003ac:	6f5a      	ldr	r2, [r3, #116]	; 0x74
  4003ae:	f042 0210 	orr.w	r2, r2, #16
  4003b2:	675a      	str	r2, [r3, #116]	; 0x74
	((Pio *)hw)->PIO_PDR = mask;
  4003b4:	2210      	movs	r2, #16
  4003b6:	605a      	str	r2, [r3, #4]
  4003b8:	4770      	bx	lr
  4003ba:	bf00      	nop
  4003bc:	400e0e00 	.word	0x400e0e00
  4003c0:	40088000 	.word	0x40088000
  4003c4:	400e1000 	.word	0x400e1000

004003c8 <USART_0_init>:
 * \brief USART initialization function
 *
 * Enables USART peripheral, clocks and initializes USART driver
 */
void USART_0_init(void)
{
  4003c8:	b510      	push	{r4, lr}
  4003ca:	b082      	sub	sp, #8
	USART_0_CLOCK_init();
  4003cc:	4b07      	ldr	r3, [pc, #28]	; (4003ec <USART_0_init+0x24>)
  4003ce:	4798      	blx	r3
	USART_0_PORT_init();
  4003d0:	4b07      	ldr	r3, [pc, #28]	; (4003f0 <USART_0_init+0x28>)
  4003d2:	4798      	blx	r3
	usart_async_init(&USART_0, USART1, USART_0_buffer, USART_0_BUFFER_SIZE, _usart_get_usart_async());
  4003d4:	4b07      	ldr	r3, [pc, #28]	; (4003f4 <USART_0_init+0x2c>)
  4003d6:	4798      	blx	r3
  4003d8:	9000      	str	r0, [sp, #0]
  4003da:	2310      	movs	r3, #16
  4003dc:	4a06      	ldr	r2, [pc, #24]	; (4003f8 <USART_0_init+0x30>)
  4003de:	4907      	ldr	r1, [pc, #28]	; (4003fc <USART_0_init+0x34>)
  4003e0:	4807      	ldr	r0, [pc, #28]	; (400400 <USART_0_init+0x38>)
  4003e2:	4c08      	ldr	r4, [pc, #32]	; (400404 <USART_0_init+0x3c>)
  4003e4:	47a0      	blx	r4
}
  4003e6:	b002      	add	sp, #8
  4003e8:	bd10      	pop	{r4, pc}
  4003ea:	bf00      	nop
  4003ec:	00400365 	.word	0x00400365
  4003f0:	0040037d 	.word	0x0040037d
  4003f4:	00401471 	.word	0x00401471
  4003f8:	20400120 	.word	0x20400120
  4003fc:	40028000 	.word	0x40028000
  400400:	20400258 	.word	0x20400258
  400404:	00400995 	.word	0x00400995

00400408 <system_init>:

void system_init(void)
{
  400408:	b508      	push	{r3, lr}
 * Currently the following initialization functions are supported:
 *  - System clock initialization
 */
static inline void init_mcu(void)
{
	_init_chip();
  40040a:	4b08      	ldr	r3, [pc, #32]	; (40042c <system_init+0x24>)
  40040c:	4798      	blx	r3
}

static inline void hri_wdt_set_MR_WDDIS_bit(const void *const hw)
{
	WDT_CRITICAL_SECTION_ENTER();
	((Wdt *)hw)->WDT_MR |= WDT_MR_WDDIS;
  40040e:	4a08      	ldr	r2, [pc, #32]	; (400430 <system_init+0x28>)
  400410:	6853      	ldr	r3, [r2, #4]
  400412:	f443 4300 	orr.w	r3, r3, #32768	; 0x8000
  400416:	6053      	str	r3, [r2, #4]
	init_mcu();

	/* Disable Watchdog */
	hri_wdt_set_MR_WDDIS_bit(WDT);

	SPI_0_init();
  400418:	4b06      	ldr	r3, [pc, #24]	; (400434 <system_init+0x2c>)
  40041a:	4798      	blx	r3
	TIMER_0_init();
  40041c:	4b06      	ldr	r3, [pc, #24]	; (400438 <system_init+0x30>)
  40041e:	4798      	blx	r3

	RAND_0_init();
  400420:	4b06      	ldr	r3, [pc, #24]	; (40043c <system_init+0x34>)
  400422:	4798      	blx	r3
	USART_0_init();
  400424:	4b06      	ldr	r3, [pc, #24]	; (400440 <system_init+0x38>)
  400426:	4798      	blx	r3
  400428:	bd08      	pop	{r3, pc}
  40042a:	bf00      	nop
  40042c:	00400c35 	.word	0x00400c35
  400430:	400e1850 	.word	0x400e1850
  400434:	004002e9 	.word	0x004002e9
  400438:	0040024d 	.word	0x0040024d
  40043c:	00400345 	.word	0x00400345
  400440:	004003c9 	.word	0x004003c9

00400444 <atomic_enter_critical>:
 */
__STATIC_FORCEINLINE uint32_t __get_PRIMASK(void)
{
  uint32_t result;

  __ASM volatile ("MRS %0, primask" : "=r" (result) :: "memory");
  400444:	f3ef 8310 	mrs	r3, PRIMASK
/**
 * \brief Disable interrupts, enter critical section
 */
void atomic_enter_critical(hal_atomic_t volatile *atomic)
{
	*atomic = __get_PRIMASK();
  400448:	6003      	str	r3, [r0, #0]
  __ASM volatile ("cpsid i" : : : "memory");
  40044a:	b672      	cpsid	i
  \details Ensures the apparent order of the explicit memory operations before
           and after the instruction, without ensuring their completion.
 */
__STATIC_FORCEINLINE void __DMB(void)
{
  __ASM volatile ("dmb 0xF":::"memory");
  40044c:	f3bf 8f5f 	dmb	sy
  400450:	4770      	bx	lr

00400452 <atomic_leave_critical>:
  400452:	f3bf 8f5f 	dmb	sy
 * \brief Exit atomic section
 */
void atomic_leave_critical(hal_atomic_t volatile *atomic)
{
	__DMB();
	__set_PRIMASK(*atomic);
  400456:	6803      	ldr	r3, [r0, #0]
  __ASM volatile ("MSR primask, %0" : : "r" (priMask) : "memory");
  400458:	f383 8810 	msr	PRIMASK, r3
  40045c:	4770      	bx	lr
	...

00400460 <io_write>:

/**
 * \brief I/O write interface
 */
int32_t io_write(struct io_descriptor *const io_descr, const uint8_t *const buf, const uint16_t length)
{
  400460:	b570      	push	{r4, r5, r6, lr}
  400462:	4616      	mov	r6, r2
	ASSERT(io_descr && buf);
  400464:	4604      	mov	r4, r0
  400466:	460d      	mov	r5, r1
  400468:	2800      	cmp	r0, #0
  40046a:	bf18      	it	ne
  40046c:	2900      	cmpne	r1, #0
  40046e:	bf14      	ite	ne
  400470:	2001      	movne	r0, #1
  400472:	2000      	moveq	r0, #0
  400474:	2234      	movs	r2, #52	; 0x34
  400476:	4904      	ldr	r1, [pc, #16]	; (400488 <io_write+0x28>)
  400478:	4b04      	ldr	r3, [pc, #16]	; (40048c <io_write+0x2c>)
  40047a:	4798      	blx	r3
	return io_descr->write(io_descr, buf, length);
  40047c:	6823      	ldr	r3, [r4, #0]
  40047e:	4632      	mov	r2, r6
  400480:	4629      	mov	r1, r5
  400482:	4620      	mov	r0, r4
  400484:	4798      	blx	r3
}
  400486:	bd70      	pop	{r4, r5, r6, pc}
  400488:	00401760 	.word	0x00401760
  40048c:	00400ac9 	.word	0x00400ac9

00400490 <io_read>:

/**
 * \brief I/O read interface
 */
int32_t io_read(struct io_descriptor *const io_descr, uint8_t *const buf, const uint16_t length)
{
  400490:	b570      	push	{r4, r5, r6, lr}
  400492:	4616      	mov	r6, r2
	ASSERT(io_descr && buf);
  400494:	4604      	mov	r4, r0
  400496:	460d      	mov	r5, r1
  400498:	2800      	cmp	r0, #0
  40049a:	bf18      	it	ne
  40049c:	2900      	cmpne	r1, #0
  40049e:	bf14      	ite	ne
  4004a0:	2001      	movne	r0, #1
  4004a2:	2000      	moveq	r0, #0
  4004a4:	223d      	movs	r2, #61	; 0x3d
  4004a6:	4904      	ldr	r1, [pc, #16]	; (4004b8 <io_read+0x28>)
  4004a8:	4b04      	ldr	r3, [pc, #16]	; (4004bc <io_read+0x2c>)
  4004aa:	4798      	blx	r3
	return io_descr->read(io_descr, buf, length);
  4004ac:	6863      	ldr	r3, [r4, #4]
  4004ae:	4632      	mov	r2, r6
  4004b0:	4629      	mov	r1, r5
  4004b2:	4620      	mov	r0, r4
  4004b4:	4798      	blx	r3
}
  4004b6:	bd70      	pop	{r4, r5, r6, pc}
  4004b8:	00401760 	.word	0x00401760
  4004bc:	00400ac9 	.word	0x00400ac9

004004c0 <rand_sync_init>:
#include "hal_rand_sync.h"

#define HAL_RNG_SYNC_VERSION 0x00000001u

int32_t rand_sync_init(struct rand_sync_desc *const desc, void *const hw)
{
  4004c0:	b538      	push	{r3, r4, r5, lr}
  4004c2:	460d      	mov	r5, r1
	ASSERT(desc);
  4004c4:	4604      	mov	r4, r0
  4004c6:	2229      	movs	r2, #41	; 0x29
  4004c8:	4905      	ldr	r1, [pc, #20]	; (4004e0 <rand_sync_init+0x20>)
  4004ca:	3000      	adds	r0, #0
  4004cc:	bf18      	it	ne
  4004ce:	2001      	movne	r0, #1
  4004d0:	4b04      	ldr	r3, [pc, #16]	; (4004e4 <rand_sync_init+0x24>)
  4004d2:	4798      	blx	r3

	return _rand_sync_init(&desc->dev, hw);
  4004d4:	4629      	mov	r1, r5
  4004d6:	4620      	mov	r0, r4
  4004d8:	4b03      	ldr	r3, [pc, #12]	; (4004e8 <rand_sync_init+0x28>)
  4004da:	4798      	blx	r3
}
  4004dc:	bd38      	pop	{r3, r4, r5, pc}
  4004de:	bf00      	nop
  4004e0:	00401774 	.word	0x00401774
  4004e4:	00400ac9 	.word	0x00400ac9
  4004e8:	0040109d 	.word	0x0040109d

004004ec <spi_m_sync_set_func_ptr>:

/**
 *  \brief Initialize the SPI HAL instance function pointer for HPL APIs.
 */
void spi_m_sync_set_func_ptr(struct spi_m_sync_descriptor *spi, void *const func)
{
  4004ec:	b538      	push	{r3, r4, r5, lr}
  4004ee:	460d      	mov	r5, r1
	ASSERT(spi);
  4004f0:	4604      	mov	r4, r0
  4004f2:	2239      	movs	r2, #57	; 0x39
  4004f4:	4903      	ldr	r1, [pc, #12]	; (400504 <spi_m_sync_set_func_ptr+0x18>)
  4004f6:	3000      	adds	r0, #0
  4004f8:	bf18      	it	ne
  4004fa:	2001      	movne	r0, #1
  4004fc:	4b02      	ldr	r3, [pc, #8]	; (400508 <spi_m_sync_set_func_ptr+0x1c>)
  4004fe:	4798      	blx	r3
	spi->func = (struct _spi_m_sync_hpl_interface *)func;
  400500:	6025      	str	r5, [r4, #0]
  400502:	bd38      	pop	{r3, r4, r5, pc}
  400504:	00401790 	.word	0x00401790
  400508:	00400ac9 	.word	0x00400ac9

0040050c <spi_m_sync_init>:
}

int32_t spi_m_sync_init(struct spi_m_sync_descriptor *spi, void *const hw)
{
  40050c:	b538      	push	{r3, r4, r5, lr}
	int32_t rc = 0;
	ASSERT(spi && hw);
  40050e:	4604      	mov	r4, r0
  400510:	460d      	mov	r5, r1
  400512:	2800      	cmp	r0, #0
  400514:	bf18      	it	ne
  400516:	2900      	cmpne	r1, #0
  400518:	bf14      	ite	ne
  40051a:	2001      	movne	r0, #1
  40051c:	2000      	moveq	r0, #0
  40051e:	2240      	movs	r2, #64	; 0x40
  400520:	4909      	ldr	r1, [pc, #36]	; (400548 <spi_m_sync_init+0x3c>)
  400522:	4b0a      	ldr	r3, [pc, #40]	; (40054c <spi_m_sync_init+0x40>)
  400524:	4798      	blx	r3
	spi->dev.prvt = (void *)hw;
  400526:	4620      	mov	r0, r4
  400528:	f840 5f04 	str.w	r5, [r0, #4]!
	rc            = _spi_m_sync_init(&spi->dev, hw);
  40052c:	4629      	mov	r1, r5
  40052e:	4b08      	ldr	r3, [pc, #32]	; (400550 <spi_m_sync_init+0x44>)
  400530:	4798      	blx	r3

	if (rc < 0) {
  400532:	2800      	cmp	r0, #0
  400534:	db07      	blt.n	400546 <spi_m_sync_init+0x3a>
		return rc;
	}

	spi->flags    = SPI_DEACTIVATE_NEXT;
  400536:	f44f 4300 	mov.w	r3, #32768	; 0x8000
  40053a:	82a3      	strh	r3, [r4, #20]
	spi->io.read  = _spi_m_sync_io_read;
  40053c:	4b05      	ldr	r3, [pc, #20]	; (400554 <spi_m_sync_init+0x48>)
  40053e:	6123      	str	r3, [r4, #16]
	spi->io.write = _spi_m_sync_io_write;
  400540:	4b05      	ldr	r3, [pc, #20]	; (400558 <spi_m_sync_init+0x4c>)
  400542:	60e3      	str	r3, [r4, #12]

	return ERR_NONE;
  400544:	2000      	movs	r0, #0
}
  400546:	bd38      	pop	{r3, r4, r5, pc}
  400548:	00401790 	.word	0x00401790
  40054c:	00400ac9 	.word	0x00400ac9
  400550:	00400d59 	.word	0x00400d59
  400554:	00400601 	.word	0x00400601
  400558:	004005c5 	.word	0x004005c5

0040055c <spi_m_sync_enable>:
	ASSERT(spi);
	_spi_m_sync_deinit(&spi->dev);
}

void spi_m_sync_enable(struct spi_m_sync_descriptor *spi)
{
  40055c:	b510      	push	{r4, lr}
	ASSERT(spi);
  40055e:	4604      	mov	r4, r0
  400560:	2257      	movs	r2, #87	; 0x57
  400562:	4905      	ldr	r1, [pc, #20]	; (400578 <spi_m_sync_enable+0x1c>)
  400564:	3000      	adds	r0, #0
  400566:	bf18      	it	ne
  400568:	2001      	movne	r0, #1
  40056a:	4b04      	ldr	r3, [pc, #16]	; (40057c <spi_m_sync_enable+0x20>)
  40056c:	4798      	blx	r3
	_spi_m_sync_enable(&spi->dev);
  40056e:	1d20      	adds	r0, r4, #4
  400570:	4b03      	ldr	r3, [pc, #12]	; (400580 <spi_m_sync_enable+0x24>)
  400572:	4798      	blx	r3
  400574:	bd10      	pop	{r4, pc}
  400576:	bf00      	nop
  400578:	00401790 	.word	0x00401790
  40057c:	00400ac9 	.word	0x00400ac9
  400580:	00400e01 	.word	0x00400e01

00400584 <spi_m_sync_transfer>:

	return spi_m_sync_transfer(spi, &xfer);
}

int32_t spi_m_sync_transfer(struct spi_m_sync_descriptor *spi, const struct spi_xfer *p_xfer)
{
  400584:	b530      	push	{r4, r5, lr}
  400586:	b085      	sub	sp, #20
	struct spi_msg msg;

	ASSERT(spi && p_xfer);
  400588:	4605      	mov	r5, r0
  40058a:	460c      	mov	r4, r1
  40058c:	2800      	cmp	r0, #0
  40058e:	bf18      	it	ne
  400590:	2900      	cmpne	r1, #0
  400592:	bf14      	ite	ne
  400594:	2001      	movne	r0, #1
  400596:	2000      	moveq	r0, #0
  400598:	22b3      	movs	r2, #179	; 0xb3
  40059a:	4907      	ldr	r1, [pc, #28]	; (4005b8 <spi_m_sync_transfer+0x34>)
  40059c:	4b07      	ldr	r3, [pc, #28]	; (4005bc <spi_m_sync_transfer+0x38>)
  40059e:	4798      	blx	r3

	msg.txbuf = p_xfer->txbuf;
  4005a0:	6823      	ldr	r3, [r4, #0]
  4005a2:	9301      	str	r3, [sp, #4]
	msg.rxbuf = p_xfer->rxbuf;
  4005a4:	6863      	ldr	r3, [r4, #4]
  4005a6:	9302      	str	r3, [sp, #8]
	msg.size  = p_xfer->size;
  4005a8:	68a3      	ldr	r3, [r4, #8]
  4005aa:	9303      	str	r3, [sp, #12]
	return _spi_m_sync_trans(&spi->dev, &msg);
  4005ac:	a901      	add	r1, sp, #4
  4005ae:	1d28      	adds	r0, r5, #4
  4005b0:	4b03      	ldr	r3, [pc, #12]	; (4005c0 <spi_m_sync_transfer+0x3c>)
  4005b2:	4798      	blx	r3
}
  4005b4:	b005      	add	sp, #20
  4005b6:	bd30      	pop	{r4, r5, pc}
  4005b8:	00401790 	.word	0x00401790
  4005bc:	00400ac9 	.word	0x00400ac9
  4005c0:	00400e35 	.word	0x00400e35

004005c4 <_spi_m_sync_io_write>:
{
  4005c4:	b570      	push	{r4, r5, r6, lr}
  4005c6:	b084      	sub	sp, #16
  4005c8:	460e      	mov	r6, r1
  4005ca:	4615      	mov	r5, r2
	ASSERT(io);
  4005cc:	4604      	mov	r4, r0
  4005ce:	22a3      	movs	r2, #163	; 0xa3
  4005d0:	4908      	ldr	r1, [pc, #32]	; (4005f4 <_spi_m_sync_io_write+0x30>)
  4005d2:	3000      	adds	r0, #0
  4005d4:	bf18      	it	ne
  4005d6:	2001      	movne	r0, #1
  4005d8:	4b07      	ldr	r3, [pc, #28]	; (4005f8 <_spi_m_sync_io_write+0x34>)
  4005da:	4798      	blx	r3
	xfer.rxbuf = 0;
  4005dc:	2300      	movs	r3, #0
  4005de:	9302      	str	r3, [sp, #8]
	xfer.txbuf = (uint8_t *)buf;
  4005e0:	9601      	str	r6, [sp, #4]
	xfer.size  = length;
  4005e2:	9503      	str	r5, [sp, #12]
	return spi_m_sync_transfer(spi, &xfer);
  4005e4:	a901      	add	r1, sp, #4
  4005e6:	f1a4 000c 	sub.w	r0, r4, #12
  4005ea:	4b04      	ldr	r3, [pc, #16]	; (4005fc <_spi_m_sync_io_write+0x38>)
  4005ec:	4798      	blx	r3
}
  4005ee:	b004      	add	sp, #16
  4005f0:	bd70      	pop	{r4, r5, r6, pc}
  4005f2:	bf00      	nop
  4005f4:	00401790 	.word	0x00401790
  4005f8:	00400ac9 	.word	0x00400ac9
  4005fc:	00400585 	.word	0x00400585

00400600 <_spi_m_sync_io_read>:
{
  400600:	b570      	push	{r4, r5, r6, lr}
  400602:	b084      	sub	sp, #16
  400604:	460e      	mov	r6, r1
  400606:	4615      	mov	r5, r2
	ASSERT(io);
  400608:	4604      	mov	r4, r0
  40060a:	2287      	movs	r2, #135	; 0x87
  40060c:	4908      	ldr	r1, [pc, #32]	; (400630 <_spi_m_sync_io_read+0x30>)
  40060e:	3000      	adds	r0, #0
  400610:	bf18      	it	ne
  400612:	2001      	movne	r0, #1
  400614:	4b07      	ldr	r3, [pc, #28]	; (400634 <_spi_m_sync_io_read+0x34>)
  400616:	4798      	blx	r3
	xfer.rxbuf = buf;
  400618:	9602      	str	r6, [sp, #8]
	xfer.txbuf = 0;
  40061a:	2300      	movs	r3, #0
  40061c:	9301      	str	r3, [sp, #4]
	xfer.size  = length;
  40061e:	9503      	str	r5, [sp, #12]
	return spi_m_sync_transfer(spi, &xfer);
  400620:	a901      	add	r1, sp, #4
  400622:	f1a4 000c 	sub.w	r0, r4, #12
  400626:	4b04      	ldr	r3, [pc, #16]	; (400638 <_spi_m_sync_io_read+0x38>)
  400628:	4798      	blx	r3
}
  40062a:	b004      	add	sp, #16
  40062c:	bd70      	pop	{r4, r5, r6, pc}
  40062e:	bf00      	nop
  400630:	00401790 	.word	0x00401790
  400634:	00400ac9 	.word	0x00400ac9
  400638:	00400585 	.word	0x00400585

0040063c <spi_m_sync_get_io_descriptor>:

int32_t spi_m_sync_get_io_descriptor(struct spi_m_sync_descriptor *const spi, struct io_descriptor **io)
{
  40063c:	b538      	push	{r3, r4, r5, lr}
	ASSERT(spi && io);
  40063e:	4604      	mov	r4, r0
  400640:	460d      	mov	r5, r1
  400642:	2800      	cmp	r0, #0
  400644:	bf18      	it	ne
  400646:	2900      	cmpne	r1, #0
  400648:	bf14      	ite	ne
  40064a:	2001      	movne	r0, #1
  40064c:	2000      	moveq	r0, #0
  40064e:	22bd      	movs	r2, #189	; 0xbd
  400650:	4903      	ldr	r1, [pc, #12]	; (400660 <spi_m_sync_get_io_descriptor+0x24>)
  400652:	4b04      	ldr	r3, [pc, #16]	; (400664 <spi_m_sync_get_io_descriptor+0x28>)
  400654:	4798      	blx	r3
	*io = &spi->io;
  400656:	340c      	adds	r4, #12
  400658:	602c      	str	r4, [r5, #0]
	return 0;
}
  40065a:	2000      	movs	r0, #0
  40065c:	bd38      	pop	{r3, r4, r5, pc}
  40065e:	bf00      	nop
  400660:	00401790 	.word	0x00401790
  400664:	00400ac9 	.word	0x00400ac9

00400668 <timer_add_timer_task>:
 * \param[in] head The pointer to the head of timer task list
 * \param[in] task The pointer to task to add
 * \param[in] time Current timer time
 */
static void timer_add_timer_task(struct list_descriptor *list, struct timer_task *const new_task, const uint32_t time)
{
  400668:	b5f8      	push	{r3, r4, r5, r6, r7, lr}
 * \return A pointer to the head of the given list or NULL if the list is
 * empty
 */
static inline void *list_get_head(const struct list_descriptor *const list)
{
	return (void *)list->head;
  40066a:	6807      	ldr	r7, [r0, #0]
	struct timer_task *it, *prev = NULL, *head = (struct timer_task *)list_get_head(list);

	if (!head) {
  40066c:	b117      	cbz	r7, 400674 <timer_add_timer_task+0xc>
  40066e:	463c      	mov	r4, r7
  400670:	2600      	movs	r6, #0
  400672:	e00b      	b.n	40068c <timer_add_timer_task+0x24>
		list_insert_as_head(list, new_task);
  400674:	4b0e      	ldr	r3, [pc, #56]	; (4006b0 <timer_add_timer_task+0x48>)
  400676:	4798      	blx	r3
		return;
  400678:	bdf8      	pop	{r3, r4, r5, r6, r7, pc}
		uint32_t time_left;

		if (it->time_label <= time) {
			time_left = it->interval - (time - it->time_label);
		} else {
			time_left = it->interval - (0xFFFFFFFF - it->time_label) - time;
  40067a:	68a5      	ldr	r5, [r4, #8]
  40067c:	442b      	add	r3, r5
  40067e:	1a9b      	subs	r3, r3, r2
  400680:	3301      	adds	r3, #1
		}
		if (time_left >= new_task->interval)
  400682:	688d      	ldr	r5, [r1, #8]
  400684:	42ab      	cmp	r3, r5
  400686:	d209      	bcs.n	40069c <timer_add_timer_task+0x34>
			break;
		prev = it;
  400688:	4626      	mov	r6, r4
	for (it = head; it; it = (struct timer_task *)list_get_next_element(it)) {
  40068a:	6824      	ldr	r4, [r4, #0]
  40068c:	b134      	cbz	r4, 40069c <timer_add_timer_task+0x34>
		if (it->time_label <= time) {
  40068e:	6863      	ldr	r3, [r4, #4]
  400690:	4293      	cmp	r3, r2
  400692:	d8f2      	bhi.n	40067a <timer_add_timer_task+0x12>
			time_left = it->interval - (time - it->time_label);
  400694:	68a5      	ldr	r5, [r4, #8]
  400696:	1a9b      	subs	r3, r3, r2
  400698:	442b      	add	r3, r5
  40069a:	e7f2      	b.n	400682 <timer_add_timer_task+0x1a>
	}

	if (it == head) {
  40069c:	42bc      	cmp	r4, r7
  40069e:	d003      	beq.n	4006a8 <timer_add_timer_task+0x40>
		list_insert_as_head(list, new_task);
	} else {
		list_insert_after(prev, new_task);
  4006a0:	4630      	mov	r0, r6
  4006a2:	4b04      	ldr	r3, [pc, #16]	; (4006b4 <timer_add_timer_task+0x4c>)
  4006a4:	4798      	blx	r3
  4006a6:	bdf8      	pop	{r3, r4, r5, r6, r7, pc}
		list_insert_as_head(list, new_task);
  4006a8:	4b01      	ldr	r3, [pc, #4]	; (4006b0 <timer_add_timer_task+0x48>)
  4006aa:	4798      	blx	r3
  4006ac:	bdf8      	pop	{r3, r4, r5, r6, r7, pc}
  4006ae:	bf00      	nop
  4006b0:	00400ae5 	.word	0x00400ae5
  4006b4:	00400b11 	.word	0x00400b11

004006b8 <timer_process_counted>:

/**
 * \internal Process interrupts
 */
static void timer_process_counted(struct _timer_device *device)
{
  4006b8:	b5f8      	push	{r3, r4, r5, r6, r7, lr}
  4006ba:	6944      	ldr	r4, [r0, #20]
	struct timer_descriptor *timer = CONTAINER_OF(device, struct timer_descriptor, device);
	struct timer_task *      it    = (struct timer_task *)list_get_head(&timer->tasks);
	uint32_t                 time  = ++timer->time;
  4006bc:	6906      	ldr	r6, [r0, #16]
  4006be:	3601      	adds	r6, #1
  4006c0:	6106      	str	r6, [r0, #16]

	if ((timer->flags & TIMER_FLAG_QUEUE_IS_TAKEN) || (timer->flags & TIMER_FLAG_INTERRUPT_TRIGERRED)) {
  4006c2:	7e03      	ldrb	r3, [r0, #24]
  4006c4:	f013 0f01 	tst.w	r3, #1
  4006c8:	d105      	bne.n	4006d6 <timer_process_counted+0x1e>
  4006ca:	7e03      	ldrb	r3, [r0, #24]
  4006cc:	f013 0f02 	tst.w	r3, #2
  4006d0:	d101      	bne.n	4006d6 <timer_process_counted+0x1e>
  4006d2:	4605      	mov	r5, r0
  4006d4:	e009      	b.n	4006ea <timer_process_counted+0x32>
		timer->flags |= TIMER_FLAG_INTERRUPT_TRIGERRED;
  4006d6:	7e03      	ldrb	r3, [r0, #24]
  4006d8:	f043 0302 	orr.w	r3, r3, #2
  4006dc:	7603      	strb	r3, [r0, #24]
		return;
  4006de:	bdf8      	pop	{r3, r4, r5, r6, r7, pc}
  4006e0:	696f      	ldr	r7, [r5, #20]
			tmp->time_label = time;
			timer_add_timer_task(&timer->tasks, tmp, time);
		}
		it = (struct timer_task *)list_get_head(&timer->tasks);

		tmp->cb(tmp);
  4006e2:	68e3      	ldr	r3, [r4, #12]
  4006e4:	4620      	mov	r0, r4
  4006e6:	4798      	blx	r3
		it = (struct timer_task *)list_get_head(&timer->tasks);
  4006e8:	463c      	mov	r4, r7
	while (it && ((time - it->time_label) >= it->interval)) {
  4006ea:	b19c      	cbz	r4, 400714 <timer_process_counted+0x5c>
  4006ec:	6863      	ldr	r3, [r4, #4]
  4006ee:	1af3      	subs	r3, r6, r3
  4006f0:	68a2      	ldr	r2, [r4, #8]
  4006f2:	4293      	cmp	r3, r2
  4006f4:	d30e      	bcc.n	400714 <timer_process_counted+0x5c>
		list_remove_head(&timer->tasks);
  4006f6:	f105 0714 	add.w	r7, r5, #20
  4006fa:	4638      	mov	r0, r7
  4006fc:	4b06      	ldr	r3, [pc, #24]	; (400718 <timer_process_counted+0x60>)
  4006fe:	4798      	blx	r3
		if (TIMER_TASK_REPEAT == tmp->mode) {
  400700:	7c23      	ldrb	r3, [r4, #16]
  400702:	2b01      	cmp	r3, #1
  400704:	d1ec      	bne.n	4006e0 <timer_process_counted+0x28>
			tmp->time_label = time;
  400706:	6066      	str	r6, [r4, #4]
			timer_add_timer_task(&timer->tasks, tmp, time);
  400708:	4632      	mov	r2, r6
  40070a:	4621      	mov	r1, r4
  40070c:	4638      	mov	r0, r7
  40070e:	4b03      	ldr	r3, [pc, #12]	; (40071c <timer_process_counted+0x64>)
  400710:	4798      	blx	r3
  400712:	e7e5      	b.n	4006e0 <timer_process_counted+0x28>
  400714:	bdf8      	pop	{r3, r4, r5, r6, r7, pc}
  400716:	bf00      	nop
  400718:	00400b19 	.word	0x00400b19
  40071c:	00400669 	.word	0x00400669

00400720 <timer_init>:
{
  400720:	b538      	push	{r3, r4, r5, lr}
	ASSERT(descr && hw);
  400722:	4604      	mov	r4, r0
  400724:	460d      	mov	r5, r1
  400726:	2800      	cmp	r0, #0
  400728:	bf18      	it	ne
  40072a:	2900      	cmpne	r1, #0
  40072c:	bf14      	ite	ne
  40072e:	2001      	movne	r0, #1
  400730:	2000      	moveq	r0, #0
  400732:	223b      	movs	r2, #59	; 0x3b
  400734:	4905      	ldr	r1, [pc, #20]	; (40074c <timer_init+0x2c>)
  400736:	4b06      	ldr	r3, [pc, #24]	; (400750 <timer_init+0x30>)
  400738:	4798      	blx	r3
	_timer_init(&descr->device, hw);
  40073a:	4629      	mov	r1, r5
  40073c:	4620      	mov	r0, r4
  40073e:	4b05      	ldr	r3, [pc, #20]	; (400754 <timer_init+0x34>)
  400740:	4798      	blx	r3
	descr->time                           = 0;
  400742:	2000      	movs	r0, #0
  400744:	6120      	str	r0, [r4, #16]
	descr->device.timer_cb.period_expired = timer_process_counted;
  400746:	4b04      	ldr	r3, [pc, #16]	; (400758 <timer_init+0x38>)
  400748:	6023      	str	r3, [r4, #0]
}
  40074a:	bd38      	pop	{r3, r4, r5, pc}
  40074c:	004017ac 	.word	0x004017ac
  400750:	00400ac9 	.word	0x00400ac9
  400754:	00400f9d 	.word	0x00400f9d
  400758:	004006b9 	.word	0x004006b9

0040075c <timer_start>:
{
  40075c:	b510      	push	{r4, lr}
	ASSERT(descr);
  40075e:	4604      	mov	r4, r0
  400760:	2253      	movs	r2, #83	; 0x53
  400762:	4909      	ldr	r1, [pc, #36]	; (400788 <timer_start+0x2c>)
  400764:	3000      	adds	r0, #0
  400766:	bf18      	it	ne
  400768:	2001      	movne	r0, #1
  40076a:	4b08      	ldr	r3, [pc, #32]	; (40078c <timer_start+0x30>)
  40076c:	4798      	blx	r3
	if (_timer_is_started(&descr->device)) {
  40076e:	4620      	mov	r0, r4
  400770:	4b07      	ldr	r3, [pc, #28]	; (400790 <timer_start+0x34>)
  400772:	4798      	blx	r3
  400774:	b920      	cbnz	r0, 400780 <timer_start+0x24>
	_timer_start(&descr->device);
  400776:	4620      	mov	r0, r4
  400778:	4b06      	ldr	r3, [pc, #24]	; (400794 <timer_start+0x38>)
  40077a:	4798      	blx	r3
	return ERR_NONE;
  40077c:	2000      	movs	r0, #0
  40077e:	bd10      	pop	{r4, pc}
		return ERR_DENIED;
  400780:	f06f 0010 	mvn.w	r0, #16
}
  400784:	bd10      	pop	{r4, pc}
  400786:	bf00      	nop
  400788:	004017ac 	.word	0x004017ac
  40078c:	00400ac9 	.word	0x00400ac9
  400790:	00401061 	.word	0x00401061
  400794:	00401059 	.word	0x00401059

00400798 <timer_add_task>:
{
  400798:	b570      	push	{r4, r5, r6, lr}
  40079a:	b082      	sub	sp, #8
	ASSERT(descr && task);
  40079c:	4604      	mov	r4, r0
  40079e:	460d      	mov	r5, r1
  4007a0:	2800      	cmp	r0, #0
  4007a2:	bf18      	it	ne
  4007a4:	2900      	cmpne	r1, #0
  4007a6:	bf14      	ite	ne
  4007a8:	2001      	movne	r0, #1
  4007aa:	2000      	moveq	r0, #0
  4007ac:	227a      	movs	r2, #122	; 0x7a
  4007ae:	491d      	ldr	r1, [pc, #116]	; (400824 <timer_add_task+0x8c>)
  4007b0:	4b1d      	ldr	r3, [pc, #116]	; (400828 <timer_add_task+0x90>)
  4007b2:	4798      	blx	r3
	descr->flags |= TIMER_FLAG_QUEUE_IS_TAKEN;
  4007b4:	7e23      	ldrb	r3, [r4, #24]
  4007b6:	f043 0301 	orr.w	r3, r3, #1
  4007ba:	7623      	strb	r3, [r4, #24]
	if (is_list_element(&descr->tasks, task)) {
  4007bc:	f104 0614 	add.w	r6, r4, #20
  4007c0:	4629      	mov	r1, r5
  4007c2:	4630      	mov	r0, r6
  4007c4:	4b19      	ldr	r3, [pc, #100]	; (40082c <timer_add_task+0x94>)
  4007c6:	4798      	blx	r3
  4007c8:	b988      	cbnz	r0, 4007ee <timer_add_task+0x56>
	task->time_label = descr->time;
  4007ca:	6923      	ldr	r3, [r4, #16]
  4007cc:	606b      	str	r3, [r5, #4]
	timer_add_timer_task(&descr->tasks, task, descr->time);
  4007ce:	6922      	ldr	r2, [r4, #16]
  4007d0:	4629      	mov	r1, r5
  4007d2:	4630      	mov	r0, r6
  4007d4:	4b16      	ldr	r3, [pc, #88]	; (400830 <timer_add_task+0x98>)
  4007d6:	4798      	blx	r3
	descr->flags &= ~TIMER_FLAG_QUEUE_IS_TAKEN;
  4007d8:	7e23      	ldrb	r3, [r4, #24]
  4007da:	f003 03fe 	and.w	r3, r3, #254	; 0xfe
  4007de:	7623      	strb	r3, [r4, #24]
	if (descr->flags & TIMER_FLAG_INTERRUPT_TRIGERRED) {
  4007e0:	7e23      	ldrb	r3, [r4, #24]
  4007e2:	f013 0f02 	tst.w	r3, #2
  4007e6:	d10e      	bne.n	400806 <timer_add_task+0x6e>
	return ERR_NONE;
  4007e8:	2000      	movs	r0, #0
}
  4007ea:	b002      	add	sp, #8
  4007ec:	bd70      	pop	{r4, r5, r6, pc}
		descr->flags &= ~TIMER_FLAG_QUEUE_IS_TAKEN;
  4007ee:	7e23      	ldrb	r3, [r4, #24]
  4007f0:	f003 03fe 	and.w	r3, r3, #254	; 0xfe
  4007f4:	7623      	strb	r3, [r4, #24]
		ASSERT(false);
  4007f6:	227f      	movs	r2, #127	; 0x7f
  4007f8:	490a      	ldr	r1, [pc, #40]	; (400824 <timer_add_task+0x8c>)
  4007fa:	2000      	movs	r0, #0
  4007fc:	4b0a      	ldr	r3, [pc, #40]	; (400828 <timer_add_task+0x90>)
  4007fe:	4798      	blx	r3
		return ERR_ALREADY_INITIALIZED;
  400800:	f06f 0011 	mvn.w	r0, #17
  400804:	e7f1      	b.n	4007ea <timer_add_task+0x52>
		CRITICAL_SECTION_ENTER()
  400806:	a801      	add	r0, sp, #4
  400808:	4b0a      	ldr	r3, [pc, #40]	; (400834 <timer_add_task+0x9c>)
  40080a:	4798      	blx	r3
		descr->flags &= ~TIMER_FLAG_INTERRUPT_TRIGERRED;
  40080c:	7e23      	ldrb	r3, [r4, #24]
  40080e:	f003 03fd 	and.w	r3, r3, #253	; 0xfd
  400812:	7623      	strb	r3, [r4, #24]
		_timer_set_irq(&descr->device);
  400814:	4620      	mov	r0, r4
  400816:	4b08      	ldr	r3, [pc, #32]	; (400838 <timer_add_task+0xa0>)
  400818:	4798      	blx	r3
		CRITICAL_SECTION_LEAVE()
  40081a:	a801      	add	r0, sp, #4
  40081c:	4b07      	ldr	r3, [pc, #28]	; (40083c <timer_add_task+0xa4>)
  40081e:	4798      	blx	r3
	return ERR_NONE;
  400820:	2000      	movs	r0, #0
  400822:	e7e2      	b.n	4007ea <timer_add_task+0x52>
  400824:	004017ac 	.word	0x004017ac
  400828:	00400ac9 	.word	0x00400ac9
  40082c:	00400acf 	.word	0x00400acf
  400830:	00400669 	.word	0x00400669
  400834:	00400445 	.word	0x00400445
  400838:	0040106d 	.word	0x0040106d
  40083c:	00400453 	.word	0x00400453

00400840 <usart_transmission_complete>:
 * \brief Process completion of data sending
 *
 * \param[in] device The pointer to device structure
 */
static void usart_transmission_complete(struct _usart_async_device *device)
{
  400840:	b508      	push	{r3, lr}
	struct usart_async_descriptor *descr = CONTAINER_OF(device, struct usart_async_descriptor, device);

	descr->stat = 0;
  400842:	2300      	movs	r3, #0
  400844:	6283      	str	r3, [r0, #40]	; 0x28
	if (descr->usart_cb.tx_done) {
  400846:	69c3      	ldr	r3, [r0, #28]
  400848:	b11b      	cbz	r3, 400852 <usart_transmission_complete+0x12>
  40084a:	f1a0 0208 	sub.w	r2, r0, #8
		descr->usart_cb.tx_done(descr);
  40084e:	4610      	mov	r0, r2
  400850:	4798      	blx	r3
  400852:	bd08      	pop	{r3, pc}

00400854 <usart_error>:
 * \brief Process error interrupt
 *
 * \param[in] device The pointer to device structure
 */
static void usart_error(struct _usart_async_device *device)
{
  400854:	b508      	push	{r3, lr}
	struct usart_async_descriptor *descr = CONTAINER_OF(device, struct usart_async_descriptor, device);

	descr->stat = 0;
  400856:	2300      	movs	r3, #0
  400858:	6283      	str	r3, [r0, #40]	; 0x28
	if (descr->usart_cb.error) {
  40085a:	6a43      	ldr	r3, [r0, #36]	; 0x24
  40085c:	b11b      	cbz	r3, 400866 <usart_error+0x12>
  40085e:	f1a0 0208 	sub.w	r2, r0, #8
		descr->usart_cb.error(descr);
  400862:	4610      	mov	r0, r2
  400864:	4798      	blx	r3
  400866:	bd08      	pop	{r3, pc}

00400868 <usart_fill_rx_buffer>:
{
  400868:	b538      	push	{r3, r4, r5, lr}
  40086a:	4604      	mov	r4, r0
	struct usart_async_descriptor *descr = CONTAINER_OF(device, struct usart_async_descriptor, device);
  40086c:	f1a0 0508 	sub.w	r5, r0, #8
	ringbuffer_put(&descr->rx, data);
  400870:	302c      	adds	r0, #44	; 0x2c
  400872:	4b03      	ldr	r3, [pc, #12]	; (400880 <usart_fill_rx_buffer+0x18>)
  400874:	4798      	blx	r3
	if (descr->usart_cb.rx_done) {
  400876:	6a23      	ldr	r3, [r4, #32]
  400878:	b10b      	cbz	r3, 40087e <usart_fill_rx_buffer+0x16>
		descr->usart_cb.rx_done(descr);
  40087a:	4628      	mov	r0, r5
  40087c:	4798      	blx	r3
  40087e:	bd38      	pop	{r3, r4, r5, pc}
  400880:	00400bb1 	.word	0x00400bb1

00400884 <usart_async_write>:
{
  400884:	b570      	push	{r4, r5, r6, lr}
  400886:	4615      	mov	r5, r2
	ASSERT(descr && buf && length);
  400888:	4604      	mov	r4, r0
  40088a:	460e      	mov	r6, r1
  40088c:	2800      	cmp	r0, #0
  40088e:	bf18      	it	ne
  400890:	2900      	cmpne	r1, #0
  400892:	d002      	beq.n	40089a <usart_async_write+0x16>
  400894:	b9da      	cbnz	r2, 4008ce <usart_async_write+0x4a>
  400896:	2000      	movs	r0, #0
  400898:	e000      	b.n	40089c <usart_async_write+0x18>
  40089a:	2000      	movs	r0, #0
  40089c:	f240 123b 	movw	r2, #315	; 0x13b
  4008a0:	490d      	ldr	r1, [pc, #52]	; (4008d8 <usart_async_write+0x54>)
  4008a2:	4b0e      	ldr	r3, [pc, #56]	; (4008dc <usart_async_write+0x58>)
  4008a4:	4798      	blx	r3
	if (descr->tx_por != descr->tx_buffer_length) {
  4008a6:	f8b4 2044 	ldrh.w	r2, [r4, #68]	; 0x44
  4008aa:	f8b4 304c 	ldrh.w	r3, [r4, #76]	; 0x4c
  4008ae:	429a      	cmp	r2, r3
  4008b0:	d10f      	bne.n	4008d2 <usart_async_write+0x4e>
	descr->tx_buffer        = (uint8_t *)buf;
  4008b2:	64a6      	str	r6, [r4, #72]	; 0x48
	descr->tx_buffer_length = length;
  4008b4:	f8a4 504c 	strh.w	r5, [r4, #76]	; 0x4c
	descr->tx_por           = 0;
  4008b8:	2300      	movs	r3, #0
  4008ba:	f8a4 3044 	strh.w	r3, [r4, #68]	; 0x44
	descr->stat             = USART_ASYNC_STATUS_BUSY;
  4008be:	2301      	movs	r3, #1
  4008c0:	6323      	str	r3, [r4, #48]	; 0x30
	_usart_async_enable_byte_sent_irq(&descr->device);
  4008c2:	f104 0008 	add.w	r0, r4, #8
  4008c6:	4b06      	ldr	r3, [pc, #24]	; (4008e0 <usart_async_write+0x5c>)
  4008c8:	4798      	blx	r3
	return (int32_t)length;
  4008ca:	4628      	mov	r0, r5
  4008cc:	bd70      	pop	{r4, r5, r6, pc}
	ASSERT(descr && buf && length);
  4008ce:	2001      	movs	r0, #1
  4008d0:	e7e4      	b.n	40089c <usart_async_write+0x18>
		return ERR_NO_RESOURCE;
  4008d2:	f06f 001b 	mvn.w	r0, #27
}
  4008d6:	bd70      	pop	{r4, r5, r6, pc}
  4008d8:	004017c4 	.word	0x004017c4
  4008dc:	00400ac9 	.word	0x00400ac9
  4008e0:	0040139d 	.word	0x0040139d

004008e4 <usart_process_byte_sent>:
{
  4008e4:	b510      	push	{r4, lr}
  4008e6:	4604      	mov	r4, r0
	if (descr->tx_por != descr->tx_buffer_length) {
  4008e8:	8f83      	ldrh	r3, [r0, #60]	; 0x3c
  4008ea:	f8b0 2044 	ldrh.w	r2, [r0, #68]	; 0x44
  4008ee:	4293      	cmp	r3, r2
  4008f0:	d009      	beq.n	400906 <usart_process_byte_sent+0x22>
		_usart_async_write_byte(&descr->device, descr->tx_buffer[descr->tx_por++]);
  4008f2:	6c02      	ldr	r2, [r0, #64]	; 0x40
  4008f4:	1c59      	adds	r1, r3, #1
  4008f6:	8781      	strh	r1, [r0, #60]	; 0x3c
  4008f8:	5cd1      	ldrb	r1, [r2, r3]
  4008fa:	4b04      	ldr	r3, [pc, #16]	; (40090c <usart_process_byte_sent+0x28>)
  4008fc:	4798      	blx	r3
		_usart_async_enable_byte_sent_irq(&descr->device);
  4008fe:	4620      	mov	r0, r4
  400900:	4b03      	ldr	r3, [pc, #12]	; (400910 <usart_process_byte_sent+0x2c>)
  400902:	4798      	blx	r3
  400904:	bd10      	pop	{r4, pc}
		_usart_async_enable_tx_done_irq(&descr->device);
  400906:	4b03      	ldr	r3, [pc, #12]	; (400914 <usart_process_byte_sent+0x30>)
  400908:	4798      	blx	r3
  40090a:	bd10      	pop	{r4, pc}
  40090c:	00401379 	.word	0x00401379
  400910:	0040139d 	.word	0x0040139d
  400914:	004013c1 	.word	0x004013c1

00400918 <usart_async_read>:
{
  400918:	e92d 41f0 	stmdb	sp!, {r4, r5, r6, r7, r8, lr}
  40091c:	b082      	sub	sp, #8
  40091e:	4617      	mov	r7, r2
	ASSERT(descr && buf && length);
  400920:	4605      	mov	r5, r0
  400922:	4688      	mov	r8, r1
  400924:	2800      	cmp	r0, #0
  400926:	bf18      	it	ne
  400928:	2900      	cmpne	r1, #0
  40092a:	d002      	beq.n	400932 <usart_async_read+0x1a>
  40092c:	b9a2      	cbnz	r2, 400958 <usart_async_read+0x40>
  40092e:	2000      	movs	r0, #0
  400930:	e000      	b.n	400934 <usart_async_read+0x1c>
  400932:	2000      	movs	r0, #0
  400934:	f44f 72ac 	mov.w	r2, #344	; 0x158
  400938:	4910      	ldr	r1, [pc, #64]	; (40097c <usart_async_read+0x64>)
  40093a:	4b11      	ldr	r3, [pc, #68]	; (400980 <usart_async_read+0x68>)
  40093c:	4798      	blx	r3
	CRITICAL_SECTION_ENTER()
  40093e:	a801      	add	r0, sp, #4
  400940:	4b10      	ldr	r3, [pc, #64]	; (400984 <usart_async_read+0x6c>)
  400942:	4798      	blx	r3
	num = ringbuffer_num(&descr->rx);
  400944:	3534      	adds	r5, #52	; 0x34
  400946:	4628      	mov	r0, r5
  400948:	4b0f      	ldr	r3, [pc, #60]	; (400988 <usart_async_read+0x70>)
  40094a:	4798      	blx	r3
  40094c:	4606      	mov	r6, r0
	CRITICAL_SECTION_LEAVE()
  40094e:	a801      	add	r0, sp, #4
  400950:	4b0e      	ldr	r3, [pc, #56]	; (40098c <usart_async_read+0x74>)
  400952:	4798      	blx	r3
	uint16_t                       was_read = 0;
  400954:	2400      	movs	r4, #0
	while ((was_read < num) && (was_read < length)) {
  400956:	e007      	b.n	400968 <usart_async_read+0x50>
	ASSERT(descr && buf && length);
  400958:	2001      	movs	r0, #1
  40095a:	e7eb      	b.n	400934 <usart_async_read+0x1c>
		ringbuffer_get(&descr->rx, &buf[was_read++]);
  40095c:	3401      	adds	r4, #1
  40095e:	b2a4      	uxth	r4, r4
  400960:	4441      	add	r1, r8
  400962:	4628      	mov	r0, r5
  400964:	4b0a      	ldr	r3, [pc, #40]	; (400990 <usart_async_read+0x78>)
  400966:	4798      	blx	r3
	while ((was_read < num) && (was_read < length)) {
  400968:	4621      	mov	r1, r4
  40096a:	42a6      	cmp	r6, r4
  40096c:	d901      	bls.n	400972 <usart_async_read+0x5a>
  40096e:	42bc      	cmp	r4, r7
  400970:	d3f4      	bcc.n	40095c <usart_async_read+0x44>
}
  400972:	4620      	mov	r0, r4
  400974:	b002      	add	sp, #8
  400976:	e8bd 81f0 	ldmia.w	sp!, {r4, r5, r6, r7, r8, pc}
  40097a:	bf00      	nop
  40097c:	004017c4 	.word	0x004017c4
  400980:	00400ac9 	.word	0x00400ac9
  400984:	00400445 	.word	0x00400445
  400988:	00400bf1 	.word	0x00400bf1
  40098c:	00400453 	.word	0x00400453
  400990:	00400b6d 	.word	0x00400b6d

00400994 <usart_async_init>:
{
  400994:	b5f8      	push	{r3, r4, r5, r6, r7, lr}
  400996:	4615      	mov	r5, r2
  400998:	461e      	mov	r6, r3
	ASSERT(descr && hw && rx_buffer && rx_buffer_length);
  40099a:	4604      	mov	r4, r0
  40099c:	460f      	mov	r7, r1
  40099e:	2800      	cmp	r0, #0
  4009a0:	bf18      	it	ne
  4009a2:	2900      	cmpne	r1, #0
  4009a4:	d008      	beq.n	4009b8 <usart_async_init+0x24>
  4009a6:	1c13      	adds	r3, r2, #0
  4009a8:	bf18      	it	ne
  4009aa:	2301      	movne	r3, #1
  4009ac:	b116      	cbz	r6, 4009b4 <usart_async_init+0x20>
  4009ae:	b10b      	cbz	r3, 4009b4 <usart_async_init+0x20>
  4009b0:	2001      	movs	r0, #1
  4009b2:	e002      	b.n	4009ba <usart_async_init+0x26>
  4009b4:	2000      	movs	r0, #0
  4009b6:	e000      	b.n	4009ba <usart_async_init+0x26>
  4009b8:	2000      	movs	r0, #0
  4009ba:	223a      	movs	r2, #58	; 0x3a
  4009bc:	4910      	ldr	r1, [pc, #64]	; (400a00 <usart_async_init+0x6c>)
  4009be:	4b11      	ldr	r3, [pc, #68]	; (400a04 <usart_async_init+0x70>)
  4009c0:	4798      	blx	r3
	if (ERR_NONE != ringbuffer_init(&descr->rx, rx_buffer, rx_buffer_length)) {
  4009c2:	4632      	mov	r2, r6
  4009c4:	4629      	mov	r1, r5
  4009c6:	f104 0034 	add.w	r0, r4, #52	; 0x34
  4009ca:	4b0f      	ldr	r3, [pc, #60]	; (400a08 <usart_async_init+0x74>)
  4009cc:	4798      	blx	r3
  4009ce:	b9a0      	cbnz	r0, 4009fa <usart_async_init+0x66>
	init_status = _usart_async_init(&descr->device, hw);
  4009d0:	4639      	mov	r1, r7
  4009d2:	f104 0008 	add.w	r0, r4, #8
  4009d6:	4b0d      	ldr	r3, [pc, #52]	; (400a0c <usart_async_init+0x78>)
  4009d8:	4798      	blx	r3
	if (init_status) {
  4009da:	4603      	mov	r3, r0
  4009dc:	b958      	cbnz	r0, 4009f6 <usart_async_init+0x62>
	descr->io.read  = usart_async_read;
  4009de:	4a0c      	ldr	r2, [pc, #48]	; (400a10 <usart_async_init+0x7c>)
  4009e0:	6062      	str	r2, [r4, #4]
	descr->io.write = usart_async_write;
  4009e2:	4a0c      	ldr	r2, [pc, #48]	; (400a14 <usart_async_init+0x80>)
  4009e4:	6022      	str	r2, [r4, #0]
	descr->device.usart_cb.tx_byte_sent = usart_process_byte_sent;
  4009e6:	4a0c      	ldr	r2, [pc, #48]	; (400a18 <usart_async_init+0x84>)
  4009e8:	60a2      	str	r2, [r4, #8]
	descr->device.usart_cb.rx_done_cb   = usart_fill_rx_buffer;
  4009ea:	4a0c      	ldr	r2, [pc, #48]	; (400a1c <usart_async_init+0x88>)
  4009ec:	60e2      	str	r2, [r4, #12]
	descr->device.usart_cb.tx_done_cb   = usart_transmission_complete;
  4009ee:	4a0c      	ldr	r2, [pc, #48]	; (400a20 <usart_async_init+0x8c>)
  4009f0:	6122      	str	r2, [r4, #16]
	descr->device.usart_cb.error_cb     = usart_error;
  4009f2:	4a0c      	ldr	r2, [pc, #48]	; (400a24 <usart_async_init+0x90>)
  4009f4:	6162      	str	r2, [r4, #20]
}
  4009f6:	4618      	mov	r0, r3
  4009f8:	bdf8      	pop	{r3, r4, r5, r6, r7, pc}
		return ERR_INVALID_ARG;
  4009fa:	f06f 030c 	mvn.w	r3, #12
  4009fe:	e7fa      	b.n	4009f6 <usart_async_init+0x62>
  400a00:	004017c4 	.word	0x004017c4
  400a04:	00400ac9 	.word	0x00400ac9
  400a08:	00400b29 	.word	0x00400b29
  400a0c:	00401299 	.word	0x00401299
  400a10:	00400919 	.word	0x00400919
  400a14:	00400885 	.word	0x00400885
  400a18:	004008e5 	.word	0x004008e5
  400a1c:	00400869 	.word	0x00400869
  400a20:	00400841 	.word	0x00400841
  400a24:	00400855 	.word	0x00400855

00400a28 <usart_async_enable>:
{
  400a28:	b510      	push	{r4, lr}
	ASSERT(descr);
  400a2a:	4604      	mov	r4, r0
  400a2c:	2261      	movs	r2, #97	; 0x61
  400a2e:	4906      	ldr	r1, [pc, #24]	; (400a48 <usart_async_enable+0x20>)
  400a30:	3000      	adds	r0, #0
  400a32:	bf18      	it	ne
  400a34:	2001      	movne	r0, #1
  400a36:	4b05      	ldr	r3, [pc, #20]	; (400a4c <usart_async_enable+0x24>)
  400a38:	4798      	blx	r3
	_usart_async_enable(&descr->device);
  400a3a:	f104 0008 	add.w	r0, r4, #8
  400a3e:	4b04      	ldr	r3, [pc, #16]	; (400a50 <usart_async_enable+0x28>)
  400a40:	4798      	blx	r3
}
  400a42:	2000      	movs	r0, #0
  400a44:	bd10      	pop	{r4, pc}
  400a46:	bf00      	nop
  400a48:	004017c4 	.word	0x004017c4
  400a4c:	00400ac9 	.word	0x00400ac9
  400a50:	00401345 	.word	0x00401345

00400a54 <usart_async_register_callback>:
{
  400a54:	b570      	push	{r4, r5, r6, lr}
  400a56:	460c      	mov	r4, r1
  400a58:	4616      	mov	r6, r2
	ASSERT(descr);
  400a5a:	4605      	mov	r5, r0
  400a5c:	2283      	movs	r2, #131	; 0x83
  400a5e:	4917      	ldr	r1, [pc, #92]	; (400abc <usart_async_register_callback+0x68>)
  400a60:	3000      	adds	r0, #0
  400a62:	bf18      	it	ne
  400a64:	2001      	movne	r0, #1
  400a66:	4b16      	ldr	r3, [pc, #88]	; (400ac0 <usart_async_register_callback+0x6c>)
  400a68:	4798      	blx	r3
	switch (type) {
  400a6a:	2c01      	cmp	r4, #1
  400a6c:	d010      	beq.n	400a90 <usart_async_register_callback+0x3c>
  400a6e:	b124      	cbz	r4, 400a7a <usart_async_register_callback+0x26>
  400a70:	2c02      	cmp	r4, #2
  400a72:	d018      	beq.n	400aa6 <usart_async_register_callback+0x52>
		return ERR_INVALID_ARG;
  400a74:	f06f 000c 	mvn.w	r0, #12
}
  400a78:	bd70      	pop	{r4, r5, r6, pc}
		descr->usart_cb.rx_done = cb;
  400a7a:	62ae      	str	r6, [r5, #40]	; 0x28
		_usart_async_set_irq_state(&descr->device, USART_ASYNC_RX_DONE, NULL != cb);
  400a7c:	1c32      	adds	r2, r6, #0
  400a7e:	bf18      	it	ne
  400a80:	2201      	movne	r2, #1
  400a82:	2101      	movs	r1, #1
  400a84:	f105 0008 	add.w	r0, r5, #8
  400a88:	4b0e      	ldr	r3, [pc, #56]	; (400ac4 <usart_async_register_callback+0x70>)
  400a8a:	4798      	blx	r3
	return ERR_NONE;
  400a8c:	2000      	movs	r0, #0
		break;
  400a8e:	bd70      	pop	{r4, r5, r6, pc}
		descr->usart_cb.tx_done = cb;
  400a90:	626e      	str	r6, [r5, #36]	; 0x24
		_usart_async_set_irq_state(&descr->device, USART_ASYNC_TX_DONE, NULL != cb);
  400a92:	1c32      	adds	r2, r6, #0
  400a94:	bf18      	it	ne
  400a96:	2201      	movne	r2, #1
  400a98:	2102      	movs	r1, #2
  400a9a:	f105 0008 	add.w	r0, r5, #8
  400a9e:	4b09      	ldr	r3, [pc, #36]	; (400ac4 <usart_async_register_callback+0x70>)
  400aa0:	4798      	blx	r3
	return ERR_NONE;
  400aa2:	2000      	movs	r0, #0
		break;
  400aa4:	bd70      	pop	{r4, r5, r6, pc}
		descr->usart_cb.error = cb;
  400aa6:	62ee      	str	r6, [r5, #44]	; 0x2c
		_usart_async_set_irq_state(&descr->device, USART_ASYNC_ERROR, NULL != cb);
  400aa8:	1c32      	adds	r2, r6, #0
  400aaa:	bf18      	it	ne
  400aac:	2201      	movne	r2, #1
  400aae:	2103      	movs	r1, #3
  400ab0:	f105 0008 	add.w	r0, r5, #8
  400ab4:	4b03      	ldr	r3, [pc, #12]	; (400ac4 <usart_async_register_callback+0x70>)
  400ab6:	4798      	blx	r3
	return ERR_NONE;
  400ab8:	2000      	movs	r0, #0
		break;
  400aba:	bd70      	pop	{r4, r5, r6, pc}
  400abc:	004017c4 	.word	0x004017c4
  400ac0:	00400ac9 	.word	0x00400ac9
  400ac4:	004013e9 	.word	0x004013e9

00400ac8 <assert>:
/**
 * \brief Assert function
 */
void assert(const bool condition, const char *const file, const int line)
{
	if (!(condition)) {
  400ac8:	b900      	cbnz	r0, 400acc <assert+0x4>
		__asm("BKPT #0");
  400aca:	be00      	bkpt	0x0000
  400acc:	4770      	bx	lr

00400ace <is_list_element>:
 * \brief Check whether element belongs to list
 */
bool is_list_element(const struct list_descriptor *const list, const void *const element)
{
	struct list_element *it;
	for (it = list->head; it; it = it->next) {
  400ace:	6803      	ldr	r3, [r0, #0]
  400ad0:	b11b      	cbz	r3, 400ada <is_list_element+0xc>
		if (it == element) {
  400ad2:	428b      	cmp	r3, r1
  400ad4:	d003      	beq.n	400ade <is_list_element+0x10>
	for (it = list->head; it; it = it->next) {
  400ad6:	681b      	ldr	r3, [r3, #0]
  400ad8:	e7fa      	b.n	400ad0 <is_list_element+0x2>
			return true;
		}
	}

	return false;
  400ada:	2000      	movs	r0, #0
  400adc:	4770      	bx	lr
			return true;
  400ade:	2001      	movs	r0, #1
}
  400ae0:	4770      	bx	lr
	...

00400ae4 <list_insert_as_head>:

/**
 * \brief Insert an element as list head
 */
void list_insert_as_head(struct list_descriptor *const list, void *const element)
{
  400ae4:	b538      	push	{r3, r4, r5, lr}
  400ae6:	4604      	mov	r4, r0
  400ae8:	460d      	mov	r5, r1
	ASSERT(!is_list_element(list, element));
  400aea:	4b06      	ldr	r3, [pc, #24]	; (400b04 <list_insert_as_head+0x20>)
  400aec:	4798      	blx	r3
  400aee:	f080 0001 	eor.w	r0, r0, #1
  400af2:	2239      	movs	r2, #57	; 0x39
  400af4:	4904      	ldr	r1, [pc, #16]	; (400b08 <list_insert_as_head+0x24>)
  400af6:	b2c0      	uxtb	r0, r0
  400af8:	4b04      	ldr	r3, [pc, #16]	; (400b0c <list_insert_as_head+0x28>)
  400afa:	4798      	blx	r3

	((struct list_element *)element)->next = list->head;
  400afc:	6823      	ldr	r3, [r4, #0]
  400afe:	602b      	str	r3, [r5, #0]
	list->head                             = (struct list_element *)element;
  400b00:	6025      	str	r5, [r4, #0]
  400b02:	bd38      	pop	{r3, r4, r5, pc}
  400b04:	00400acf 	.word	0x00400acf
  400b08:	004017e4 	.word	0x004017e4
  400b0c:	00400ac9 	.word	0x00400ac9

00400b10 <list_insert_after>:
/**
 * \brief Insert an element after the given list element
 */
void list_insert_after(void *const after, void *const element)
{
	((struct list_element *)element)->next = ((struct list_element *)after)->next;
  400b10:	6803      	ldr	r3, [r0, #0]
  400b12:	600b      	str	r3, [r1, #0]
	((struct list_element *)after)->next   = (struct list_element *)element;
  400b14:	6001      	str	r1, [r0, #0]
  400b16:	4770      	bx	lr

00400b18 <list_remove_head>:
/**
 * \brief Removes list head
 */
void *list_remove_head(struct list_descriptor *const list)
{
	if (list->head) {
  400b18:	6803      	ldr	r3, [r0, #0]
  400b1a:	b11b      	cbz	r3, 400b24 <list_remove_head+0xc>
		struct list_element *tmp = list->head;

		list->head = list->head->next;
  400b1c:	681a      	ldr	r2, [r3, #0]
  400b1e:	6002      	str	r2, [r0, #0]
		return (void *)tmp;
  400b20:	4618      	mov	r0, r3
  400b22:	4770      	bx	lr
	}

	return NULL;
  400b24:	2000      	movs	r0, #0
}
  400b26:	4770      	bx	lr

00400b28 <ringbuffer_init>:

/**
 * \brief Ringbuffer init
 */
int32_t ringbuffer_init(struct ringbuffer *const rb, void *buf, uint32_t size)
{
  400b28:	b570      	push	{r4, r5, r6, lr}
  400b2a:	4615      	mov	r5, r2
	ASSERT(rb && buf && size);
  400b2c:	4604      	mov	r4, r0
  400b2e:	460e      	mov	r6, r1
  400b30:	2800      	cmp	r0, #0
  400b32:	bf18      	it	ne
  400b34:	2900      	cmpne	r1, #0
  400b36:	d002      	beq.n	400b3e <ringbuffer_init+0x16>
  400b38:	b97a      	cbnz	r2, 400b5a <ringbuffer_init+0x32>
  400b3a:	2000      	movs	r0, #0
  400b3c:	e000      	b.n	400b40 <ringbuffer_init+0x18>
  400b3e:	2000      	movs	r0, #0
  400b40:	2228      	movs	r2, #40	; 0x28
  400b42:	4908      	ldr	r1, [pc, #32]	; (400b64 <ringbuffer_init+0x3c>)
  400b44:	4b08      	ldr	r3, [pc, #32]	; (400b68 <ringbuffer_init+0x40>)
  400b46:	4798      	blx	r3

	/*
	 * buf size must be aligned to power of 2
	 */
	if ((size & (size - 1)) != 0) {
  400b48:	1e6b      	subs	r3, r5, #1
  400b4a:	421d      	tst	r5, r3
  400b4c:	d107      	bne.n	400b5e <ringbuffer_init+0x36>
		return ERR_INVALID_ARG;
	}

	/* size - 1 is faster in calculation */
	rb->size        = size - 1;
  400b4e:	6063      	str	r3, [r4, #4]
	rb->read_index  = 0;
  400b50:	2000      	movs	r0, #0
  400b52:	60a0      	str	r0, [r4, #8]
	rb->write_index = rb->read_index;
  400b54:	60e0      	str	r0, [r4, #12]
	rb->buf         = (uint8_t *)buf;
  400b56:	6026      	str	r6, [r4, #0]

	return ERR_NONE;
  400b58:	bd70      	pop	{r4, r5, r6, pc}
	ASSERT(rb && buf && size);
  400b5a:	2001      	movs	r0, #1
  400b5c:	e7f0      	b.n	400b40 <ringbuffer_init+0x18>
		return ERR_INVALID_ARG;
  400b5e:	f06f 000c 	mvn.w	r0, #12
}
  400b62:	bd70      	pop	{r4, r5, r6, pc}
  400b64:	00401804 	.word	0x00401804
  400b68:	00400ac9 	.word	0x00400ac9

00400b6c <ringbuffer_get>:
/**
 * \brief Get one byte from ringbuffer
 *
 */
int32_t ringbuffer_get(struct ringbuffer *const rb, uint8_t *data)
{
  400b6c:	b538      	push	{r3, r4, r5, lr}
	ASSERT(rb && data);
  400b6e:	4604      	mov	r4, r0
  400b70:	460d      	mov	r5, r1
  400b72:	2800      	cmp	r0, #0
  400b74:	bf18      	it	ne
  400b76:	2900      	cmpne	r1, #0
  400b78:	bf14      	ite	ne
  400b7a:	2001      	movne	r0, #1
  400b7c:	2000      	moveq	r0, #0
  400b7e:	2240      	movs	r2, #64	; 0x40
  400b80:	4909      	ldr	r1, [pc, #36]	; (400ba8 <ringbuffer_get+0x3c>)
  400b82:	4b0a      	ldr	r3, [pc, #40]	; (400bac <ringbuffer_get+0x40>)
  400b84:	4798      	blx	r3

	if (rb->write_index != rb->read_index) {
  400b86:	68e2      	ldr	r2, [r4, #12]
  400b88:	68a3      	ldr	r3, [r4, #8]
  400b8a:	429a      	cmp	r2, r3
  400b8c:	d009      	beq.n	400ba2 <ringbuffer_get+0x36>
		*data = rb->buf[rb->read_index & rb->size];
  400b8e:	6822      	ldr	r2, [r4, #0]
  400b90:	6861      	ldr	r1, [r4, #4]
  400b92:	400b      	ands	r3, r1
  400b94:	5cd3      	ldrb	r3, [r2, r3]
  400b96:	702b      	strb	r3, [r5, #0]
		rb->read_index++;
  400b98:	68a3      	ldr	r3, [r4, #8]
  400b9a:	3301      	adds	r3, #1
  400b9c:	60a3      	str	r3, [r4, #8]
		return ERR_NONE;
  400b9e:	2000      	movs	r0, #0
  400ba0:	bd38      	pop	{r3, r4, r5, pc}
	}

	return ERR_NOT_FOUND;
  400ba2:	f06f 0009 	mvn.w	r0, #9
}
  400ba6:	bd38      	pop	{r3, r4, r5, pc}
  400ba8:	00401804 	.word	0x00401804
  400bac:	00400ac9 	.word	0x00400ac9

00400bb0 <ringbuffer_put>:
/**
 * \brief Put one byte to ringbuffer
 *
 */
int32_t ringbuffer_put(struct ringbuffer *const rb, uint8_t data)
{
  400bb0:	b538      	push	{r3, r4, r5, lr}
  400bb2:	460d      	mov	r5, r1
	ASSERT(rb);
  400bb4:	4604      	mov	r4, r0
  400bb6:	2251      	movs	r2, #81	; 0x51
  400bb8:	490b      	ldr	r1, [pc, #44]	; (400be8 <ringbuffer_put+0x38>)
  400bba:	3000      	adds	r0, #0
  400bbc:	bf18      	it	ne
  400bbe:	2001      	movne	r0, #1
  400bc0:	4b0a      	ldr	r3, [pc, #40]	; (400bec <ringbuffer_put+0x3c>)
  400bc2:	4798      	blx	r3

	rb->buf[rb->write_index & rb->size] = data;
  400bc4:	6822      	ldr	r2, [r4, #0]
  400bc6:	68e3      	ldr	r3, [r4, #12]
  400bc8:	6861      	ldr	r1, [r4, #4]
  400bca:	400b      	ands	r3, r1
  400bcc:	54d5      	strb	r5, [r2, r3]

	/*
	 * buffer full strategy: new data will overwrite the oldest data in
	 * the buffer
	 */
	if ((rb->write_index - rb->read_index) > rb->size) {
  400bce:	68e3      	ldr	r3, [r4, #12]
  400bd0:	68a2      	ldr	r2, [r4, #8]
  400bd2:	1a9a      	subs	r2, r3, r2
  400bd4:	6861      	ldr	r1, [r4, #4]
  400bd6:	428a      	cmp	r2, r1
  400bd8:	d901      	bls.n	400bde <ringbuffer_put+0x2e>
		rb->read_index = rb->write_index - rb->size;
  400bda:	1a59      	subs	r1, r3, r1
  400bdc:	60a1      	str	r1, [r4, #8]
	}

	rb->write_index++;
  400bde:	3301      	adds	r3, #1
  400be0:	60e3      	str	r3, [r4, #12]

	return ERR_NONE;
}
  400be2:	2000      	movs	r0, #0
  400be4:	bd38      	pop	{r3, r4, r5, pc}
  400be6:	bf00      	nop
  400be8:	00401804 	.word	0x00401804
  400bec:	00400ac9 	.word	0x00400ac9

00400bf0 <ringbuffer_num>:

/**
 * \brief Return the element number of ringbuffer
 */
uint32_t ringbuffer_num(const struct ringbuffer *const rb)
{
  400bf0:	b510      	push	{r4, lr}
	ASSERT(rb);
  400bf2:	4604      	mov	r4, r0
  400bf4:	2267      	movs	r2, #103	; 0x67
  400bf6:	4905      	ldr	r1, [pc, #20]	; (400c0c <ringbuffer_num+0x1c>)
  400bf8:	3000      	adds	r0, #0
  400bfa:	bf18      	it	ne
  400bfc:	2001      	movne	r0, #1
  400bfe:	4b04      	ldr	r3, [pc, #16]	; (400c10 <ringbuffer_num+0x20>)
  400c00:	4798      	blx	r3

	return rb->write_index - rb->read_index;
  400c02:	68e0      	ldr	r0, [r4, #12]
  400c04:	68a3      	ldr	r3, [r4, #8]
}
  400c06:	1ac0      	subs	r0, r0, r3
  400c08:	bd10      	pop	{r4, pc}
  400c0a:	bf00      	nop
  400c0c:	00401804 	.word	0x00401804
  400c10:	00400ac9 	.word	0x00400ac9

00400c14 <_irq_set>:
/**
 * \brief Set the given IRQ
 */
void _irq_set(uint8_t n)
{
	NVIC_SetPendingIRQ((IRQn_Type)n);
  400c14:	b243      	sxtb	r3, r0
  \param [in]      IRQn  Device specific interrupt number.
  \note    IRQn must not be negative.
 */
__STATIC_INLINE void __NVIC_SetPendingIRQ(IRQn_Type IRQn)
{
  if ((int32_t)(IRQn) >= 0)
  400c16:	2b00      	cmp	r3, #0
  400c18:	db09      	blt.n	400c2e <_irq_set+0x1a>
  {
    NVIC->ISPR[(((uint32_t)IRQn) >> 5UL)] = (uint32_t)(1UL << (((uint32_t)IRQn) & 0x1FUL));
  400c1a:	095b      	lsrs	r3, r3, #5
  400c1c:	f000 001f 	and.w	r0, r0, #31
  400c20:	2201      	movs	r2, #1
  400c22:	fa02 f000 	lsl.w	r0, r2, r0
  400c26:	3340      	adds	r3, #64	; 0x40
  400c28:	4a01      	ldr	r2, [pc, #4]	; (400c30 <_irq_set+0x1c>)
  400c2a:	f842 0023 	str.w	r0, [r2, r3, lsl #2]
  400c2e:	4770      	bx	lr
  400c30:	e000e100 	.word	0xe000e100

00400c34 <_init_chip>:

/**
 * \brief Initialize the hardware abstraction layer
 */
void _init_chip(void)
{
  400c34:	b500      	push	{lr}
  400c36:	b083      	sub	sp, #12
/**
 * \brief Enable FPU
 */
static inline void _fpu_enable(void)
{
	CRITICAL_SECTION_ENTER()
  400c38:	a801      	add	r0, sp, #4
  400c3a:	4b0e      	ldr	r3, [pc, #56]	; (400c74 <_init_chip+0x40>)
  400c3c:	4798      	blx	r3
	/** Set bits 20-23 to enable CP10 and CP11 coprocessors */
	SCB->CPACR |= (0xFu << 20);
  400c3e:	4a0e      	ldr	r2, [pc, #56]	; (400c78 <_init_chip+0x44>)
  400c40:	f8d2 3088 	ldr.w	r3, [r2, #136]	; 0x88
  400c44:	f443 0370 	orr.w	r3, r3, #15728640	; 0xf00000
  400c48:	f8c2 3088 	str.w	r3, [r2, #136]	; 0x88
  __ASM volatile ("dsb 0xF":::"memory");
  400c4c:	f3bf 8f4f 	dsb	sy
  __ASM volatile ("isb 0xF":::"memory");
  400c50:	f3bf 8f6f 	isb	sy
	__DSB();
	__ISB();
	CRITICAL_SECTION_LEAVE()
  400c54:	a801      	add	r0, sp, #4
  400c56:	4b09      	ldr	r3, [pc, #36]	; (400c7c <_init_chip+0x48>)
  400c58:	4798      	blx	r3

static inline void hri_efc_write_EEFC_FMR_FWS_bf(const void *const hw, hri_efc_eefc_fmr_reg_t data)
{
	uint32_t tmp;
	EFC_CRITICAL_SECTION_ENTER();
	tmp = ((Efc *)hw)->EEFC_FMR;
  400c5a:	4a09      	ldr	r2, [pc, #36]	; (400c80 <_init_chip+0x4c>)
  400c5c:	6813      	ldr	r3, [r2, #0]
	tmp &= ~EEFC_FMR_FWS_Msk;
  400c5e:	f423 6370 	bic.w	r3, r3, #3840	; 0xf00
	tmp |= EEFC_FMR_FWS(data);
  400c62:	f443 63c0 	orr.w	r3, r3, #1536	; 0x600
	((Efc *)hw)->EEFC_FMR = tmp;
  400c66:	6013      	str	r3, [r2, #0]
#if CONF_DMA_ENABLE
	_pmc_enable_periph_clock(ID_XDMAC);
	_dma_init();

#endif
	_pmc_init();
  400c68:	4b06      	ldr	r3, [pc, #24]	; (400c84 <_init_chip+0x50>)
  400c6a:	4798      	blx	r3
}
  400c6c:	b003      	add	sp, #12
  400c6e:	f85d fb04 	ldr.w	pc, [sp], #4
  400c72:	bf00      	nop
  400c74:	00400445 	.word	0x00400445
  400c78:	e000ed00 	.word	0xe000ed00
  400c7c:	00400453 	.word	0x00400453
  400c80:	400e0c00 	.word	0x400e0c00
  400c84:	00400d25 	.word	0x00400d25

00400c88 <_pmc_init_sources>:
	PMC_CRITICAL_SECTION_LEAVE();
}

static inline hri_pmc_ckgr_mor_reg_t hri_pmc_read_CKGR_MOR_reg(const void *const hw)
{
	return ((Pmc *)hw)->CKGR_MOR;
  400c88:	490e      	ldr	r1, [pc, #56]	; (400cc4 <_pmc_init_sources+0x3c>)
  400c8a:	6a0a      	ldr	r2, [r1, #32]
	/* Enable Main XTAL oscillator */
	data = hri_pmc_read_CKGR_MOR_reg(PMC) & ~CKGR_MOR_MOSCXTEN;
	data |= CKGR_MOR_KEY_PASSWD | CKGR_MOR_MOSCXTBY | CKGR_MOR_MOSCSEL;
	hri_pmc_write_CKGR_MOR_reg(PMC, data);
#else
	data = hri_pmc_read_CKGR_MOR_reg(PMC) & ~CKGR_MOR_MOSCXTBY;
  400c8c:	f022 0202 	bic.w	r2, r2, #2
	data |= CKGR_MOR_KEY_PASSWD | CKGR_MOR_MOSCXTEN | CKGR_MOR_MOSCXTST(CONF_XOSC20M_STARTUP_TIME);
  400c90:	4b0d      	ldr	r3, [pc, #52]	; (400cc8 <_pmc_init_sources+0x40>)
  400c92:	4313      	orrs	r3, r2
	((Pmc *)hw)->CKGR_MOR = data;
  400c94:	620b      	str	r3, [r1, #32]
	return (((Pmc *)hw)->PMC_SR & PMC_SR_MOSCXTS) > 0;
  400c96:	4b0b      	ldr	r3, [pc, #44]	; (400cc4 <_pmc_init_sources+0x3c>)
  400c98:	6e9b      	ldr	r3, [r3, #104]	; 0x68
	hri_pmc_write_CKGR_MOR_reg(PMC, data);
	while (!hri_pmc_get_SR_MOSCXTS_bit(PMC)) {
  400c9a:	f013 0f01 	tst.w	r3, #1
  400c9e:	d0fa      	beq.n	400c96 <_pmc_init_sources+0xe>
	((Pmc *)hw)->CKGR_MOR |= mask;
  400ca0:	4b08      	ldr	r3, [pc, #32]	; (400cc4 <_pmc_init_sources+0x3c>)
  400ca2:	6a19      	ldr	r1, [r3, #32]
  400ca4:	4a09      	ldr	r2, [pc, #36]	; (400ccc <_pmc_init_sources+0x44>)
  400ca6:	430a      	orrs	r2, r1
  400ca8:	621a      	str	r2, [r3, #32]

static inline void hri_pmc_write_CKGR_PLLAR_MULA_bf(const void *const hw, hri_pmc_ckgr_pllar_reg_t data)
{
	uint32_t tmp;
	PMC_CRITICAL_SECTION_ENTER();
	tmp = ((Pmc *)hw)->CKGR_PLLAR;
  400caa:	6a99      	ldr	r1, [r3, #40]	; 0x28
	tmp &= ~CKGR_PLLAR_MULA_Msk;
  400cac:	4a08      	ldr	r2, [pc, #32]	; (400cd0 <_pmc_init_sources+0x48>)
  400cae:	400a      	ands	r2, r1
	tmp |= CKGR_PLLAR_MULA(data);
	((Pmc *)hw)->CKGR_PLLAR = tmp;
  400cb0:	629a      	str	r2, [r3, #40]	; 0x28
}

static inline void hri_pmc_write_CKGR_PLLAR_reg(const void *const hw, hri_pmc_ckgr_pllar_reg_t data)
{
	PMC_CRITICAL_SECTION_ENTER();
	((Pmc *)hw)->CKGR_PLLAR = data;
  400cb2:	4a08      	ldr	r2, [pc, #32]	; (400cd4 <_pmc_init_sources+0x4c>)
  400cb4:	629a      	str	r2, [r3, #40]	; 0x28
	return (((Pmc *)hw)->PMC_SR & PMC_SR_LOCKA) > 0;
  400cb6:	4b03      	ldr	r3, [pc, #12]	; (400cc4 <_pmc_init_sources+0x3c>)
  400cb8:	6e9b      	ldr	r3, [r3, #104]	; 0x68
#if (CONF_PLLACK_ENABLE == 1)
	data = CKGR_PLLAR_MULA(CONF_PLLACK_MUL - 1) | CKGR_PLLAR_DIVA(CONF_PLLACK_DIV) | CKGR_PLLAR_PLLACOUNT(PLL_COUNT);
	/* Stop PLL first */
	hri_pmc_write_CKGR_PLLAR_MULA_bf(PMC, 0);
	hri_pmc_write_CKGR_PLLAR_reg(PMC, (CKGR_PLLAR_ONE | data));
	while (!hri_pmc_get_SR_LOCKA_bit(PMC)) {
  400cba:	f013 0f02 	tst.w	r3, #2
  400cbe:	d0fa      	beq.n	400cb6 <_pmc_init_sources+0x2e>
#if (CONF_CLK_CFDEN_ENABLE == 1)
	/* Enable main clock failure detection */
	hri_pmc_set_CKGR_MOR_CFDEN_bit(PMC);
#endif
#endif
}
  400cc0:	4770      	bx	lr
  400cc2:	bf00      	nop
  400cc4:	400e0600 	.word	0x400e0600
  400cc8:	00373e01 	.word	0x00373e01
  400ccc:	01370000 	.word	0x01370000
  400cd0:	f800ffff 	.word	0xf800ffff
  400cd4:	20183f01 	.word	0x20183f01

00400cd8 <_pmc_init_master_clock>:

static inline void hri_pmc_write_MCKR_PRES_bf(const void *const hw, hri_pmc_mckr_reg_t data)
{
	uint32_t tmp;
	PMC_CRITICAL_SECTION_ENTER();
	tmp = ((Pmc *)hw)->PMC_MCKR;
  400cd8:	4a11      	ldr	r2, [pc, #68]	; (400d20 <_pmc_init_master_clock+0x48>)
  400cda:	6b13      	ldr	r3, [r2, #48]	; 0x30
	tmp &= ~PMC_MCKR_PRES_Msk;
  400cdc:	f023 0370 	bic.w	r3, r3, #112	; 0x70
	tmp |= PMC_MCKR_PRES(data);
	((Pmc *)hw)->PMC_MCKR = tmp;
  400ce0:	6313      	str	r3, [r2, #48]	; 0x30
	return (((Pmc *)hw)->PMC_SR & PMC_SR_MCKRDY) > 0;
  400ce2:	4b0f      	ldr	r3, [pc, #60]	; (400d20 <_pmc_init_master_clock+0x48>)
  400ce4:	6e9b      	ldr	r3, [r3, #104]	; 0x68
	while (!hri_pmc_get_SR_MCKRDY_bit(PMC)) {
		/* Wait until master clock is ready */
	}
#elif ((CONF_CLK_GEN_MCKR_SRC == CLK_SRC_OPTION_PLLACK) || (CONF_CLK_GEN_MCKR_SRC == CLK_SRC_OPTION_UPLLCKDIV))
	hri_pmc_write_MCKR_PRES_bf(PMC, CONF_MCKR_PRESC);
	while (!hri_pmc_get_SR_MCKRDY_bit(PMC)) {
  400ce6:	f013 0f08 	tst.w	r3, #8
  400cea:	d0fa      	beq.n	400ce2 <_pmc_init_master_clock+0xa>

static inline void hri_pmc_write_MCKR_MDIV_bf(const void *const hw, hri_pmc_mckr_reg_t data)
{
	uint32_t tmp;
	PMC_CRITICAL_SECTION_ENTER();
	tmp = ((Pmc *)hw)->PMC_MCKR;
  400cec:	4a0c      	ldr	r2, [pc, #48]	; (400d20 <_pmc_init_master_clock+0x48>)
  400cee:	6b13      	ldr	r3, [r2, #48]	; 0x30
	tmp &= ~PMC_MCKR_MDIV_Msk;
  400cf0:	f423 7340 	bic.w	r3, r3, #768	; 0x300
	tmp |= PMC_MCKR_MDIV(data);
  400cf4:	f443 7380 	orr.w	r3, r3, #256	; 0x100
	((Pmc *)hw)->PMC_MCKR = tmp;
  400cf8:	6313      	str	r3, [r2, #48]	; 0x30
	return (((Pmc *)hw)->PMC_SR & PMC_SR_MCKRDY) > 0;
  400cfa:	4b09      	ldr	r3, [pc, #36]	; (400d20 <_pmc_init_master_clock+0x48>)
  400cfc:	6e9b      	ldr	r3, [r3, #104]	; 0x68
		/* Wait until master clock is ready */
	}
	hri_pmc_write_MCKR_MDIV_bf(PMC, CONF_MCK_DIV);
	while (!hri_pmc_get_SR_MCKRDY_bit(PMC)) {
  400cfe:	f013 0f08 	tst.w	r3, #8
  400d02:	d0fa      	beq.n	400cfa <_pmc_init_master_clock+0x22>
	tmp = ((Pmc *)hw)->PMC_MCKR;
  400d04:	4a06      	ldr	r2, [pc, #24]	; (400d20 <_pmc_init_master_clock+0x48>)
  400d06:	6b13      	ldr	r3, [r2, #48]	; 0x30
	tmp &= ~PMC_MCKR_CSS_Msk;
  400d08:	f023 0303 	bic.w	r3, r3, #3
	tmp |= PMC_MCKR_CSS(data);
  400d0c:	f043 0302 	orr.w	r3, r3, #2
	((Pmc *)hw)->PMC_MCKR = tmp;
  400d10:	6313      	str	r3, [r2, #48]	; 0x30
	return (((Pmc *)hw)->PMC_SR & PMC_SR_MCKRDY) > 0;
  400d12:	4b03      	ldr	r3, [pc, #12]	; (400d20 <_pmc_init_master_clock+0x48>)
  400d14:	6e9b      	ldr	r3, [r3, #104]	; 0x68
		/* Wait until master clock is ready */
	}
	hri_pmc_write_MCKR_CSS_bf(PMC, CONF_CLK_GEN_MCKR_SRC);
	while (!hri_pmc_get_SR_MCKRDY_bit(PMC)) {
  400d16:	f013 0f08 	tst.w	r3, #8
  400d1a:	d0fa      	beq.n	400d12 <_pmc_init_master_clock+0x3a>
		/* Wait until master clock is ready */
	}
#endif
#endif
}
  400d1c:	4770      	bx	lr
  400d1e:	bf00      	nop
  400d20:	400e0600 	.word	0x400e0600

00400d24 <_pmc_init>:
/**
 * \brief Initializes cortex M7 core clock
 *
 */
void _pmc_init(void)
{
  400d24:	b508      	push	{r3, lr}
	_pmc_init_sources();
  400d26:	4b02      	ldr	r3, [pc, #8]	; (400d30 <_pmc_init+0xc>)
  400d28:	4798      	blx	r3
	_pmc_init_master_clock();
  400d2a:	4b02      	ldr	r3, [pc, #8]	; (400d34 <_pmc_init+0x10>)
  400d2c:	4798      	blx	r3
  400d2e:	bd08      	pop	{r3, pc}
  400d30:	00400c89 	.word	0x00400c89
  400d34:	00400cd9 	.word	0x00400cd9

00400d38 <_spi_sync_enable>:
}

static inline void hri_spi_write_CR_reg(const void *const hw, hri_spi_cr_reg_t data)
{
	SPI_CRITICAL_SECTION_ENTER();
	((Spi *)hw)->SPI_CR = data;
  400d38:	2301      	movs	r3, #1
  400d3a:	6003      	str	r3, [r0, #0]
static int32_t _spi_sync_enable(void *const hw)
{
	hri_spi_write_CR_reg(hw, SPI_CR_SPIEN);

	return ERR_NONE;
}
  400d3c:	2000      	movs	r0, #0
  400d3e:	4770      	bx	lr

00400d40 <_spi_get_hardware_index>:
 * \brief Retrieve ordinal number of the given SPI hardware instance
 */
static uint8_t _spi_get_hardware_index(const void *const hw)
{

	uint8_t index = ((uint32_t)hw - (uint32_t)SPI0) >> 16;
  400d40:	4b04      	ldr	r3, [pc, #16]	; (400d54 <_spi_get_hardware_index+0x14>)
  400d42:	4403      	add	r3, r0
  400d44:	f3c3 4307 	ubfx	r3, r3, #16, #8

	if (index == 5) {
  400d48:	2b05      	cmp	r3, #5
  400d4a:	d001      	beq.n	400d50 <_spi_get_hardware_index+0x10>
		return 1;
	} else {
		return 0;
  400d4c:	2000      	movs	r0, #0
	}
}
  400d4e:	4770      	bx	lr
		return 1;
  400d50:	2001      	movs	r0, #1
  400d52:	4770      	bx	lr
  400d54:	bfff8000 	.word	0xbfff8000

00400d58 <_spi_m_sync_init>:

	return NULL;
}

int32_t _spi_m_sync_init(struct _spi_m_sync_dev *dev, void *const hw)
{
  400d58:	b570      	push	{r4, r5, r6, lr}
  400d5a:	4606      	mov	r6, r0
  400d5c:	460c      	mov	r4, r1
	uint8_t n = _spi_get_hardware_index((const void *)hw_addr);
  400d5e:	4608      	mov	r0, r1
  400d60:	4b20      	ldr	r3, [pc, #128]	; (400de4 <_spi_m_sync_init+0x8c>)
  400d62:	4798      	blx	r3
	for (i = 0; i < sizeof(spi_regs) / sizeof(struct spi_regs_cfg); i++) {
  400d64:	2300      	movs	r3, #0
  400d66:	b33b      	cbz	r3, 400db8 <_spi_m_sync_init+0x60>
	return NULL;
  400d68:	2500      	movs	r5, #0
	const struct spi_regs_cfg *regs = _spi_get_regs((uint32_t)hw);

	ASSERT(dev && hw);
  400d6a:	f44f 729a 	mov.w	r2, #308	; 0x134
  400d6e:	491e      	ldr	r1, [pc, #120]	; (400de8 <_spi_m_sync_init+0x90>)
  400d70:	2e00      	cmp	r6, #0
  400d72:	bf18      	it	ne
  400d74:	2c00      	cmpne	r4, #0
  400d76:	bf14      	ite	ne
  400d78:	2001      	movne	r0, #1
  400d7a:	2000      	moveq	r0, #0
  400d7c:	4b1b      	ldr	r3, [pc, #108]	; (400dec <_spi_m_sync_init+0x94>)
  400d7e:	4798      	blx	r3

	if (regs == NULL) {
  400d80:	b355      	cbz	r5, 400dd8 <_spi_m_sync_init+0x80>
	return (((Spi *)hw)->SPI_SR & SPI_SR_SPIENS) > 0;
  400d82:	6923      	ldr	r3, [r4, #16]
		return ERR_INVALID_ARG;
	}

	if (hri_spi_get_SR_SPIENS_bit(hw)) {
  400d84:	f413 3f80 	tst.w	r3, #65536	; 0x10000
  400d88:	d129      	bne.n	400dde <_spi_m_sync_init+0x86>
	((Spi *)hw)->SPI_CR = data;
  400d8a:	2380      	movs	r3, #128	; 0x80
  400d8c:	6023      	str	r3, [r4, #0]
		return ERR_DENIED;
	}
	hri_spi_write_CR_reg(hw, SPI_CR_SWRST);
	dev->prvt = hw;
  400d8e:	6034      	str	r4, [r6, #0]
	hri_spi_write_CR_reg(hw, (regs->cr & ~(SPI_CR_SPIEN | SPI_CR_SPIDIS | SPI_CR_SWRST | SPI_CR_LASTXFER)));
  400d90:	686a      	ldr	r2, [r5, #4]
  400d92:	4b17      	ldr	r3, [pc, #92]	; (400df0 <_spi_m_sync_init+0x98>)
  400d94:	4013      	ands	r3, r2
  400d96:	6023      	str	r3, [r4, #0]
	hri_spi_write_MR_reg(hw, ((regs->mr | SPI_MR_PCS(0x0E) | SPI_MR_MODFDIS) & ~SPI_MR_LLB));
  400d98:	68ab      	ldr	r3, [r5, #8]
  400d9a:	4a16      	ldr	r2, [pc, #88]	; (400df4 <_spi_m_sync_init+0x9c>)
  400d9c:	401a      	ands	r2, r3
  400d9e:	4b16      	ldr	r3, [pc, #88]	; (400df8 <_spi_m_sync_init+0xa0>)
  400da0:	4313      	orrs	r3, r2
	((Spi *)hw)->SPI_MR = data;
  400da2:	6063      	str	r3, [r4, #4]
	hri_spi_write_CSR_reg(hw, 0, regs->csr);
  400da4:	68eb      	ldr	r3, [r5, #12]
	((Spi *)hw)->SPI_CSR[index] = data;
  400da6:	6323      	str	r3, [r4, #48]	; 0x30

	dev->dummy_byte = regs->dummy_byte;
  400da8:	8a2b      	ldrh	r3, [r5, #16]
  400daa:	80f3      	strh	r3, [r6, #6]
	dev->char_size  = regs->csr & SPI_CSR_BITS_Msk;
  400dac:	68eb      	ldr	r3, [r5, #12]
  400dae:	f003 03f0 	and.w	r3, r3, #240	; 0xf0
  400db2:	7133      	strb	r3, [r6, #4]

	return ERR_NONE;
  400db4:	2000      	movs	r0, #0
  400db6:	bd70      	pop	{r4, r5, r6, pc}
		if (spi_regs[i].number == n) {
  400db8:	eb03 0183 	add.w	r1, r3, r3, lsl #2
  400dbc:	008a      	lsls	r2, r1, #2
  400dbe:	490f      	ldr	r1, [pc, #60]	; (400dfc <_spi_m_sync_init+0xa4>)
  400dc0:	5c8a      	ldrb	r2, [r1, r2]
  400dc2:	4290      	cmp	r0, r2
  400dc4:	d002      	beq.n	400dcc <_spi_m_sync_init+0x74>
	for (i = 0; i < sizeof(spi_regs) / sizeof(struct spi_regs_cfg); i++) {
  400dc6:	3301      	adds	r3, #1
  400dc8:	b2db      	uxtb	r3, r3
  400dca:	e7cc      	b.n	400d66 <_spi_m_sync_init+0xe>
			return &spi_regs[i];
  400dcc:	eb03 0583 	add.w	r5, r3, r3, lsl #2
  400dd0:	00ab      	lsls	r3, r5, #2
  400dd2:	460d      	mov	r5, r1
  400dd4:	441d      	add	r5, r3
  400dd6:	e7c8      	b.n	400d6a <_spi_m_sync_init+0x12>
		return ERR_INVALID_ARG;
  400dd8:	f06f 000c 	mvn.w	r0, #12
  400ddc:	bd70      	pop	{r4, r5, r6, pc}
		return ERR_DENIED;
  400dde:	f06f 0010 	mvn.w	r0, #16
}
  400de2:	bd70      	pop	{r4, r5, r6, pc}
  400de4:	00400d41 	.word	0x00400d41
  400de8:	0040183c 	.word	0x0040183c
  400dec:	00400ac9 	.word	0x00400ac9
  400df0:	feffff7c 	.word	0xfeffff7c
  400df4:	fff1ff6f 	.word	0xfff1ff6f
  400df8:	000e0010 	.word	0x000e0010
  400dfc:	00401828 	.word	0x00401828

00400e00 <_spi_m_sync_enable>:

	return _spi_deinit(dev->prvt);
}

int32_t _spi_m_sync_enable(struct _spi_m_sync_dev *dev)
{
  400e00:	b510      	push	{r4, lr}
	ASSERT(dev && dev->prvt);
  400e02:	4604      	mov	r4, r0
  400e04:	b168      	cbz	r0, 400e22 <_spi_m_sync_enable+0x22>
  400e06:	6803      	ldr	r3, [r0, #0]
  400e08:	b14b      	cbz	r3, 400e1e <_spi_m_sync_enable+0x1e>
  400e0a:	2001      	movs	r0, #1
  400e0c:	f44f 72b9 	mov.w	r2, #370	; 0x172
  400e10:	4905      	ldr	r1, [pc, #20]	; (400e28 <_spi_m_sync_enable+0x28>)
  400e12:	4b06      	ldr	r3, [pc, #24]	; (400e2c <_spi_m_sync_enable+0x2c>)
  400e14:	4798      	blx	r3

	return _spi_sync_enable(dev->prvt);
  400e16:	6820      	ldr	r0, [r4, #0]
  400e18:	4b05      	ldr	r3, [pc, #20]	; (400e30 <_spi_m_sync_enable+0x30>)
  400e1a:	4798      	blx	r3
}
  400e1c:	bd10      	pop	{r4, pc}
	ASSERT(dev && dev->prvt);
  400e1e:	2000      	movs	r0, #0
  400e20:	e7f4      	b.n	400e0c <_spi_m_sync_enable+0xc>
  400e22:	2000      	movs	r0, #0
  400e24:	e7f2      	b.n	400e0c <_spi_m_sync_enable+0xc>
  400e26:	bf00      	nop
  400e28:	0040183c 	.word	0x0040183c
  400e2c:	00400ac9 	.word	0x00400ac9
  400e30:	00400d39 	.word	0x00400d39

00400e34 <_spi_m_sync_trans>:

	return ERR_NONE;
}

int32_t _spi_m_sync_trans(struct _spi_m_sync_dev *dev, const struct spi_msg *msg)
{
  400e34:	e92d 41f0 	stmdb	sp!, {r4, r5, r6, r7, r8, lr}
  400e38:	b086      	sub	sp, #24
  400e3a:	4607      	mov	r7, r0
  400e3c:	460d      	mov	r5, r1
	void *                 hw   = dev->prvt;
  400e3e:	6804      	ldr	r4, [r0, #0]
	int32_t                rc   = 0;
	struct _spi_trans_ctrl ctrl = {msg->txbuf, msg->rxbuf, 0, 0, dev->char_size};
  400e40:	680b      	ldr	r3, [r1, #0]
  400e42:	9301      	str	r3, [sp, #4]
  400e44:	684b      	ldr	r3, [r1, #4]
  400e46:	9302      	str	r3, [sp, #8]
  400e48:	2300      	movs	r3, #0
  400e4a:	9303      	str	r3, [sp, #12]
  400e4c:	9304      	str	r3, [sp, #16]
  400e4e:	7903      	ldrb	r3, [r0, #4]
  400e50:	f88d 3014 	strb.w	r3, [sp, #20]

	ASSERT(dev && hw);
  400e54:	1c26      	adds	r6, r4, #0
  400e56:	bf18      	it	ne
  400e58:	2601      	movne	r6, #1
  400e5a:	f240 2231 	movw	r2, #561	; 0x231
  400e5e:	4933      	ldr	r1, [pc, #204]	; (400f2c <_spi_m_sync_trans+0xf8>)
  400e60:	2800      	cmp	r0, #0
  400e62:	bf0c      	ite	eq
  400e64:	2000      	moveq	r0, #0
  400e66:	f006 0001 	andne.w	r0, r6, #1
  400e6a:	4b31      	ldr	r3, [pc, #196]	; (400f30 <_spi_m_sync_trans+0xfc>)
  400e6c:	4798      	blx	r3
	return (((Spi *)hw)->SPI_SR & SPI_SR_SPIENS) > 0;
  400e6e:	6923      	ldr	r3, [r4, #16]

	/* SPI must be enabled to start synchronous transfer */
	if (!hri_spi_get_SR_SPIENS_bit(hw)) {
  400e70:	f413 3f80 	tst.w	r3, #65536	; 0x10000
  400e74:	d122      	bne.n	400ebc <_spi_m_sync_trans+0x88>
		return ERR_NOT_INITIALIZED;
  400e76:	f06f 0013 	mvn.w	r0, #19
  400e7a:	e053      	b.n	400f24 <_spi_m_sync_trans+0xf0>
		return false;
  400e7c:	2300      	movs	r3, #0
  400e7e:	e035      	b.n	400eec <_spi_m_sync_trans+0xb8>
			data |= (*ctrl->txbuf) << 8;
  400e80:	7850      	ldrb	r0, [r2, #1]
  400e82:	ea41 2100 	orr.w	r1, r1, r0, lsl #8
			ctrl->txbuf++;
  400e86:	3202      	adds	r2, #2
  400e88:	9201      	str	r2, [sp, #4]
	ctrl->txcnt++;
  400e8a:	3301      	adds	r3, #1
  400e8c:	9303      	str	r3, [sp, #12]
}

static inline void hri_spi_write_TDR_reg(const void *const hw, hri_spi_tdr_reg_t data)
{
	SPI_CRITICAL_SECTION_ENTER();
	((Spi *)hw)->SPI_TDR = data;
  400e8e:	60e1      	str	r1, [r4, #12]
	return ((Spi *)hw)->SPI_SR;
  400e90:	f8d4 8010 	ldr.w	r8, [r4, #16]
	ASSERT(hw);
  400e94:	f240 2222 	movw	r2, #546	; 0x222
  400e98:	4924      	ldr	r1, [pc, #144]	; (400f2c <_spi_m_sync_trans+0xf8>)
  400e9a:	4630      	mov	r0, r6
  400e9c:	4b24      	ldr	r3, [pc, #144]	; (400f30 <_spi_m_sync_trans+0xfc>)
  400e9e:	4798      	blx	r3
	if (SPI_SR_OVRES & iflag) {
  400ea0:	f018 0f08 	tst.w	r8, #8
  400ea4:	d038      	beq.n	400f18 <_spi_m_sync_trans+0xe4>
		return ERR_OVERFLOW;
  400ea6:	f06f 0012 	mvn.w	r0, #18
			if (ctrl.rxcnt >= ctrl.txcnt) {
				_spi_tx_check_and_send(hw, &ctrl, dev->dummy_byte);
			}
		}
		rc = _spi_err_check(hri_spi_read_SR_reg(hw), hw);
		if (rc < 0) {
  400eaa:	2800      	cmp	r0, #0
  400eac:	db36      	blt.n	400f1c <_spi_m_sync_trans+0xe8>
			break;
		}
		if (ctrl.txcnt >= msg->size && ctrl.rxcnt >= msg->size) {
  400eae:	9803      	ldr	r0, [sp, #12]
  400eb0:	68ab      	ldr	r3, [r5, #8]
  400eb2:	4298      	cmp	r0, r3
  400eb4:	d302      	bcc.n	400ebc <_spi_m_sync_trans+0x88>
  400eb6:	9a04      	ldr	r2, [sp, #16]
  400eb8:	4293      	cmp	r3, r2
  400eba:	d92f      	bls.n	400f1c <_spi_m_sync_trans+0xe8>
  400ebc:	6923      	ldr	r3, [r4, #16]
	if (!(hri_spi_read_SR_reg(hw) & SPI_SR_RDRF)) {
  400ebe:	f013 0f01 	tst.w	r3, #1
  400ec2:	d0db      	beq.n	400e7c <_spi_m_sync_trans+0x48>
	return (((Spi *)hw)->SPI_RDR & SPI_RDR_RD_Msk) >> SPI_RDR_RD_Pos;
  400ec4:	68a3      	ldr	r3, [r4, #8]
  400ec6:	b29b      	uxth	r3, r3
	if (ctrl->rxbuf) {
  400ec8:	9a02      	ldr	r2, [sp, #8]
  400eca:	b15a      	cbz	r2, 400ee4 <_spi_m_sync_trans+0xb0>
		*ctrl->rxbuf++ = (uint8_t)data;
  400ecc:	1c51      	adds	r1, r2, #1
  400ece:	9102      	str	r1, [sp, #8]
  400ed0:	7013      	strb	r3, [r2, #0]
		if (ctrl->char_size > 1) {
  400ed2:	f89d 2014 	ldrb.w	r2, [sp, #20]
  400ed6:	2a01      	cmp	r2, #1
  400ed8:	d904      	bls.n	400ee4 <_spi_m_sync_trans+0xb0>
			*ctrl->rxbuf++ = (uint8_t)(data >> 8);
  400eda:	460a      	mov	r2, r1
  400edc:	3101      	adds	r1, #1
  400ede:	9102      	str	r1, [sp, #8]
  400ee0:	0a1b      	lsrs	r3, r3, #8
  400ee2:	7013      	strb	r3, [r2, #0]
	ctrl->rxcnt++;
  400ee4:	9b04      	ldr	r3, [sp, #16]
  400ee6:	3301      	adds	r3, #1
  400ee8:	9304      	str	r3, [sp, #16]
	return true;
  400eea:	2301      	movs	r3, #1
		if (!_spi_rx_check_and_receive(hw, &ctrl)) {
  400eec:	2b00      	cmp	r3, #0
  400eee:	d1cf      	bne.n	400e90 <_spi_m_sync_trans+0x5c>
			if (ctrl.rxcnt >= ctrl.txcnt) {
  400ef0:	9b03      	ldr	r3, [sp, #12]
  400ef2:	9a04      	ldr	r2, [sp, #16]
  400ef4:	429a      	cmp	r2, r3
  400ef6:	d3cb      	bcc.n	400e90 <_spi_m_sync_trans+0x5c>
				_spi_tx_check_and_send(hw, &ctrl, dev->dummy_byte);
  400ef8:	88f9      	ldrh	r1, [r7, #6]
	return ((Spi *)hw)->SPI_SR;
  400efa:	6922      	ldr	r2, [r4, #16]
	if (!(hri_spi_read_SR_reg(hw) & SPI_SR_TDRE)) {
  400efc:	f012 0f02 	tst.w	r2, #2
  400f00:	d0c6      	beq.n	400e90 <_spi_m_sync_trans+0x5c>
	if (ctrl->txbuf) {
  400f02:	9a01      	ldr	r2, [sp, #4]
  400f04:	2a00      	cmp	r2, #0
  400f06:	d0c0      	beq.n	400e8a <_spi_m_sync_trans+0x56>
		data = *ctrl->txbuf++;
  400f08:	1c51      	adds	r1, r2, #1
  400f0a:	9101      	str	r1, [sp, #4]
  400f0c:	7811      	ldrb	r1, [r2, #0]
		if (ctrl->char_size > 1) {
  400f0e:	f89d 0014 	ldrb.w	r0, [sp, #20]
  400f12:	2801      	cmp	r0, #1
  400f14:	d8b4      	bhi.n	400e80 <_spi_m_sync_trans+0x4c>
  400f16:	e7b8      	b.n	400e8a <_spi_m_sync_trans+0x56>
	return ERR_NONE;
  400f18:	2000      	movs	r0, #0
  400f1a:	e7c6      	b.n	400eaa <_spi_m_sync_trans+0x76>
	tmp = ((Spi *)hw)->SPI_SR;
  400f1c:	6923      	ldr	r3, [r4, #16]
	while (!(hri_spi_get_SR_reg(hw, SPI_SR_TXEMPTY))) {
  400f1e:	f413 7f00 	tst.w	r3, #512	; 0x200
  400f22:	d0fb      	beq.n	400f1c <_spi_m_sync_trans+0xe8>

	/* Wait until SPI bus idle */
	_spi_wait_bus_idle(hw);

	return rc;
}
  400f24:	b006      	add	sp, #24
  400f26:	e8bd 81f0 	ldmia.w	sp!, {r4, r5, r6, r7, r8, pc}
  400f2a:	bf00      	nop
  400f2c:	0040183c 	.word	0x0040183c
  400f30:	00400ac9 	.word	0x00400ac9

00400f34 <_spi_get_spi_m_sync>:
 * \brief Retrieve usart sync helper functions
 */
void *_spi_get_spi_m_sync(void)
{
	return (void *)NULL;
}
  400f34:	2000      	movs	r0, #0
  400f36:	4770      	bx	lr

00400f38 <get_cfg>:

static struct tc_configuration *get_cfg(void *hw)
{
	uint8_t i;

	for (i = 0; i < ARRAY_SIZE(_tcs); i++) {
  400f38:	2300      	movs	r3, #0
  400f3a:	b13b      	cbz	r3, 400f4c <get_cfg+0x14>
		if (_tcs[i].hw == hw) {
			return &(_tcs[i]);
		}
	}

	return NULL;
  400f3c:	2000      	movs	r0, #0
  400f3e:	4770      	bx	lr
			return &(_tcs[i]);
  400f40:	eb03 04c3 	add.w	r4, r3, r3, lsl #3
  400f44:	00a3      	lsls	r3, r4, #2
  400f46:	4608      	mov	r0, r1
  400f48:	4418      	add	r0, r3
  400f4a:	e00c      	b.n	400f66 <get_cfg+0x2e>
{
  400f4c:	b410      	push	{r4}
		if (_tcs[i].hw == hw) {
  400f4e:	eb03 01c3 	add.w	r1, r3, r3, lsl #3
  400f52:	008a      	lsls	r2, r1, #2
  400f54:	4905      	ldr	r1, [pc, #20]	; (400f6c <get_cfg+0x34>)
  400f56:	588a      	ldr	r2, [r1, r2]
  400f58:	4282      	cmp	r2, r0
  400f5a:	d0f1      	beq.n	400f40 <get_cfg+0x8>
	for (i = 0; i < ARRAY_SIZE(_tcs); i++) {
  400f5c:	3301      	adds	r3, #1
  400f5e:	b2db      	uxtb	r3, r3
  400f60:	2b00      	cmp	r3, #0
  400f62:	d0f4      	beq.n	400f4e <get_cfg+0x16>
	return NULL;
  400f64:	2000      	movs	r0, #0
}
  400f66:	f85d 4b04 	ldr.w	r4, [sp], #4
  400f6a:	4770      	bx	lr
  400f6c:	20400000 	.word	0x20400000

00400f70 <_tc_init_irq_param>:
/**
 * \brief Init irq param with the given tc hardware instance
 */
static void _tc_init_irq_param(const void *const hw, void *dev)
{
	if (hw == TC0) {
  400f70:	4b03      	ldr	r3, [pc, #12]	; (400f80 <_tc_init_irq_param+0x10>)
  400f72:	4298      	cmp	r0, r3
  400f74:	d000      	beq.n	400f78 <_tc_init_irq_param+0x8>
  400f76:	4770      	bx	lr
		_tc0_dev = (struct _timer_device *)dev;
  400f78:	4b02      	ldr	r3, [pc, #8]	; (400f84 <_tc_init_irq_param+0x14>)
  400f7a:	6019      	str	r1, [r3, #0]
	}
}
  400f7c:	e7fb      	b.n	400f76 <_tc_init_irq_param+0x6>
  400f7e:	bf00      	nop
  400f80:	4000c000 	.word	0x4000c000
  400f84:	20400130 	.word	0x20400130

00400f88 <tc_interrupt_handler>:
 * \internal TC interrupt handler
 *
 * \param[in] instance TC instance number
 */
static void tc_interrupt_handler(struct _timer_device *device)
{
  400f88:	b508      	push	{r3, lr}
	void *const hw = device->hw;
  400f8a:	68c3      	ldr	r3, [r0, #12]
	return (((Tc *)hw)->TcChannel[submodule_index].TC_SR & TC_SR_CPBS) > 0;
}

static inline bool hri_tc_get_SR_CPCS_bit(const void *const hw, uint8_t submodule_index)
{
	return (((Tc *)hw)->TcChannel[submodule_index].TC_SR & TC_SR_CPCS) > 0;
  400f8c:	6a1b      	ldr	r3, [r3, #32]

	if (hri_tc_get_SR_CPCS_bit(hw, 0)) {
  400f8e:	f013 0f10 	tst.w	r3, #16
  400f92:	d100      	bne.n	400f96 <tc_interrupt_handler+0xe>
  400f94:	bd08      	pop	{r3, pc}
		device->timer_cb.period_expired(device);
  400f96:	6803      	ldr	r3, [r0, #0]
  400f98:	4798      	blx	r3
	}
}
  400f9a:	e7fb      	b.n	400f94 <tc_interrupt_handler+0xc>

00400f9c <_timer_init>:
{
  400f9c:	b5f8      	push	{r3, r4, r5, r6, r7, lr}
  400f9e:	4607      	mov	r7, r0
  400fa0:	460c      	mov	r4, r1
	struct tc_configuration *cfg     = get_cfg(hw);
  400fa2:	4608      	mov	r0, r1
  400fa4:	4b27      	ldr	r3, [pc, #156]	; (401044 <_timer_init+0xa8>)
  400fa6:	4798      	blx	r3
  400fa8:	4605      	mov	r5, r0
	uint32_t                 ch_mode = cfg->channel_mode;
  400faa:	6886      	ldr	r6, [r0, #8]
	device->hw = hw;
  400fac:	60fc      	str	r4, [r7, #12]
	ASSERT(ARRAY_SIZE(_tcs));
  400fae:	2291      	movs	r2, #145	; 0x91
  400fb0:	4925      	ldr	r1, [pc, #148]	; (401048 <_timer_init+0xac>)
  400fb2:	2001      	movs	r0, #1
  400fb4:	4b25      	ldr	r3, [pc, #148]	; (40104c <_timer_init+0xb0>)
  400fb6:	4798      	blx	r3
	if (ch_mode & TC_CMR_WAVE) {
  400fb8:	f416 4f00 	tst.w	r6, #32768	; 0x8000
  400fbc:	d001      	beq.n	400fc2 <_timer_init+0x26>
		ch_mode |= (0x02 << 13) | (0x01 << 16) | (0x02 << 18);
  400fbe:	f446 2614 	orr.w	r6, r6, #606208	; 0x94000
}

static inline void hri_tc_write_CMR_reg(const void *const hw, uint8_t submodule_index, hri_tc_cmr_reg_t data)
{
	TC_CRITICAL_SECTION_ENTER();
	((Tc *)hw)->TcChannel[submodule_index].TC_CMR = data;
  400fc2:	6066      	str	r6, [r4, #4]
	hri_tc_write_RA_reg(hw, 0, cfg->ra);
  400fc4:	696b      	ldr	r3, [r5, #20]
}

static inline void hri_tc_write_RA_reg(const void *const hw, uint8_t submodule_index, hri_tc_ra_reg_t data)
{
	TC_CRITICAL_SECTION_ENTER();
	((Tc *)hw)->TcChannel[submodule_index].TC_RA = data;
  400fc6:	6163      	str	r3, [r4, #20]
	hri_tc_write_RB_reg(hw, 0, cfg->rb);
  400fc8:	69ab      	ldr	r3, [r5, #24]
}

static inline void hri_tc_write_RB_reg(const void *const hw, uint8_t submodule_index, hri_tc_rb_reg_t data)
{
	TC_CRITICAL_SECTION_ENTER();
	((Tc *)hw)->TcChannel[submodule_index].TC_RB = data;
  400fca:	61a3      	str	r3, [r4, #24]
	hri_tc_write_EMR_reg(hw, 0, cfg->ext_mode);
  400fcc:	68eb      	ldr	r3, [r5, #12]
}

static inline void hri_tc_write_EMR_reg(const void *const hw, uint8_t submodule_index, hri_tc_emr_reg_t data)
{
	TC_CRITICAL_SECTION_ENTER();
	((Tc *)hw)->TcChannel[submodule_index].TC_EMR = data;
  400fce:	6323      	str	r3, [r4, #48]	; 0x30
	hri_tc_write_RC_reg(hw, 0, cfg->rc);
  400fd0:	69eb      	ldr	r3, [r5, #28]
	((Tc *)hw)->TcChannel[submodule_index].TC_RC = data;
  400fd2:	61e3      	str	r3, [r4, #28]
	((Tc *)hw)->TcChannel[submodule_index].TC_IER = mask;
  400fd4:	2310      	movs	r3, #16
  400fd6:	6263      	str	r3, [r4, #36]	; 0x24
	hri_tc_write_FMR_reg(hw, cfg->fmr);
  400fd8:	692b      	ldr	r3, [r5, #16]
}

static inline void hri_tc_write_FMR_reg(const void *const hw, hri_tc_fmr_reg_t data)
{
	TC_CRITICAL_SECTION_ENTER();
	((Tc *)hw)->TC_FMR = data;
  400fda:	f8c4 30d8 	str.w	r3, [r4, #216]	; 0xd8
	_tc_init_irq_param(hw, device);
  400fde:	4639      	mov	r1, r7
  400fe0:	4620      	mov	r0, r4
  400fe2:	4b1b      	ldr	r3, [pc, #108]	; (401050 <_timer_init+0xb4>)
  400fe4:	4798      	blx	r3
	NVIC_DisableIRQ(cfg->irq);
  400fe6:	f995 3004 	ldrsb.w	r3, [r5, #4]
  if ((int32_t)(IRQn) >= 0)
  400fea:	2b00      	cmp	r3, #0
  400fec:	db0d      	blt.n	40100a <_timer_init+0x6e>
    NVIC->ICER[(((uint32_t)IRQn) >> 5UL)] = (uint32_t)(1UL << (((uint32_t)IRQn) & 0x1FUL));
  400fee:	095a      	lsrs	r2, r3, #5
  400ff0:	f003 031f 	and.w	r3, r3, #31
  400ff4:	2101      	movs	r1, #1
  400ff6:	fa01 f303 	lsl.w	r3, r1, r3
  400ffa:	3220      	adds	r2, #32
  400ffc:	4915      	ldr	r1, [pc, #84]	; (401054 <_timer_init+0xb8>)
  400ffe:	f841 3022 	str.w	r3, [r1, r2, lsl #2]
  __ASM volatile ("dsb 0xF":::"memory");
  401002:	f3bf 8f4f 	dsb	sy
  __ASM volatile ("isb 0xF":::"memory");
  401006:	f3bf 8f6f 	isb	sy
	NVIC_ClearPendingIRQ(cfg->irq);
  40100a:	f995 3004 	ldrsb.w	r3, [r5, #4]
  \param [in]      IRQn  Device specific interrupt number.
  \note    IRQn must not be negative.
 */
__STATIC_INLINE void __NVIC_ClearPendingIRQ(IRQn_Type IRQn)
{
  if ((int32_t)(IRQn) >= 0)
  40100e:	2b00      	cmp	r3, #0
  401010:	db09      	blt.n	401026 <_timer_init+0x8a>
  {
    NVIC->ICPR[(((uint32_t)IRQn) >> 5UL)] = (uint32_t)(1UL << (((uint32_t)IRQn) & 0x1FUL));
  401012:	095a      	lsrs	r2, r3, #5
  401014:	f003 031f 	and.w	r3, r3, #31
  401018:	2101      	movs	r1, #1
  40101a:	fa01 f303 	lsl.w	r3, r1, r3
  40101e:	3260      	adds	r2, #96	; 0x60
  401020:	490c      	ldr	r1, [pc, #48]	; (401054 <_timer_init+0xb8>)
  401022:	f841 3022 	str.w	r3, [r1, r2, lsl #2]
	NVIC_EnableIRQ(cfg->irq);
  401026:	f995 3004 	ldrsb.w	r3, [r5, #4]
  if ((int32_t)(IRQn) >= 0)
  40102a:	2b00      	cmp	r3, #0
  40102c:	db08      	blt.n	401040 <_timer_init+0xa4>
    NVIC->ISER[(((uint32_t)IRQn) >> 5UL)] = (uint32_t)(1UL << (((uint32_t)IRQn) & 0x1FUL));
  40102e:	0959      	lsrs	r1, r3, #5
  401030:	f003 031f 	and.w	r3, r3, #31
  401034:	2201      	movs	r2, #1
  401036:	fa02 f303 	lsl.w	r3, r2, r3
  40103a:	4a06      	ldr	r2, [pc, #24]	; (401054 <_timer_init+0xb8>)
  40103c:	f842 3021 	str.w	r3, [r2, r1, lsl #2]
}
  401040:	2000      	movs	r0, #0
  401042:	bdf8      	pop	{r3, r4, r5, r6, r7, pc}
  401044:	00400f39 	.word	0x00400f39
  401048:	00401854 	.word	0x00401854
  40104c:	00400ac9 	.word	0x00400ac9
  401050:	00400f71 	.word	0x00400f71
  401054:	e000e100 	.word	0xe000e100

00401058 <_timer_start>:
	hri_tc_write_CCR_reg(device->hw, 0, TC_CCR_CLKEN | TC_CCR_SWTRG);
  401058:	68c3      	ldr	r3, [r0, #12]
	((Tc *)hw)->TcChannel[submodule_index].TC_CCR = data;
  40105a:	2205      	movs	r2, #5
  40105c:	601a      	str	r2, [r3, #0]
  40105e:	4770      	bx	lr

00401060 <_timer_is_started>:
	return hri_tc_get_SR_CLKSTA_bit(device->hw, 0);
  401060:	68c3      	ldr	r3, [r0, #12]
	return (((Tc *)hw)->TcChannel[submodule_index].TC_SR & TC_SR_CLKSTA) > 0;
  401062:	6a18      	ldr	r0, [r3, #32]
}
  401064:	f3c0 4000 	ubfx	r0, r0, #16, #1
  401068:	4770      	bx	lr
	...

0040106c <_timer_set_irq>:
{
  40106c:	b508      	push	{r3, lr}
	struct tc_configuration *cfg = get_cfg(device->hw);
  40106e:	68c0      	ldr	r0, [r0, #12]
  401070:	4b02      	ldr	r3, [pc, #8]	; (40107c <_timer_set_irq+0x10>)
  401072:	4798      	blx	r3
	_irq_set((IRQn_Type)(cfg->irq));
  401074:	7900      	ldrb	r0, [r0, #4]
  401076:	4b02      	ldr	r3, [pc, #8]	; (401080 <_timer_set_irq+0x14>)
  401078:	4798      	blx	r3
  40107a:	bd08      	pop	{r3, pc}
  40107c:	00400f39 	.word	0x00400f39
  401080:	00400c15 	.word	0x00400c15

00401084 <_tc_get_timer>:
 * \brief Retrieve timer helper functions
 */
struct _timer_hpl_interface *_tc_get_timer(void)
{
	return NULL;
}
  401084:	2000      	movs	r0, #0
  401086:	4770      	bx	lr

00401088 <TC0_Handler>:

/**
 * \brief TC interrupt handler
 */
void TC0_Handler(void)
{
  401088:	b508      	push	{r3, lr}
	tc_interrupt_handler(_tc0_dev);
  40108a:	4b02      	ldr	r3, [pc, #8]	; (401094 <TC0_Handler+0xc>)
  40108c:	6818      	ldr	r0, [r3, #0]
  40108e:	4b02      	ldr	r3, [pc, #8]	; (401098 <TC0_Handler+0x10>)
  401090:	4798      	blx	r3
  401092:	bd08      	pop	{r3, pc}
  401094:	20400130 	.word	0x20400130
  401098:	00400f89 	.word	0x00400f89

0040109c <_rand_sync_init>:
#include <err_codes.h>
#include <hpl_rand_sync.h>
#include <utils_assert.h>

int32_t _rand_sync_init(struct _rand_sync_dev *const dev, void *const hw)
{
  40109c:	b538      	push	{r3, r4, r5, lr}
	ASSERT(dev && hw);
  40109e:	4604      	mov	r4, r0
  4010a0:	460d      	mov	r5, r1
  4010a2:	2800      	cmp	r0, #0
  4010a4:	bf18      	it	ne
  4010a6:	2900      	cmpne	r1, #0
  4010a8:	bf14      	ite	ne
  4010aa:	2001      	movne	r0, #1
  4010ac:	2000      	moveq	r0, #0
  4010ae:	2228      	movs	r2, #40	; 0x28
  4010b0:	4903      	ldr	r1, [pc, #12]	; (4010c0 <_rand_sync_init+0x24>)
  4010b2:	4b04      	ldr	r3, [pc, #16]	; (4010c4 <_rand_sync_init+0x28>)
  4010b4:	4798      	blx	r3

	dev->prvt   = hw;
  4010b6:	6025      	str	r5, [r4, #0]
	dev->n_bits = 32;
  4010b8:	2320      	movs	r3, #32
  4010ba:	7123      	strb	r3, [r4, #4]

	return ERR_NONE;
}
  4010bc:	2000      	movs	r0, #0
  4010be:	bd38      	pop	{r3, r4, r5, pc}
  4010c0:	00401868 	.word	0x00401868
  4010c4:	00400ac9 	.word	0x00400ac9

004010c8 <_usart_init_irq_param>:
/**
 * \brief Init irq param with the given usart hardware instance
 */
static void _usart_init_irq_param(const void *const hw, struct _usart_async_device *dev)
{
	if (hw == USART1) {
  4010c8:	4b03      	ldr	r3, [pc, #12]	; (4010d8 <_usart_init_irq_param+0x10>)
  4010ca:	4298      	cmp	r0, r3
  4010cc:	d000      	beq.n	4010d0 <_usart_init_irq_param+0x8>
  4010ce:	4770      	bx	lr
		_usart1_dev = dev;
  4010d0:	4b02      	ldr	r3, [pc, #8]	; (4010dc <_usart_init_irq_param+0x14>)
  4010d2:	6019      	str	r1, [r3, #0]
	}
}
  4010d4:	e7fb      	b.n	4010ce <_usart_init_irq_param+0x6>
  4010d6:	bf00      	nop
  4010d8:	40028000 	.word	0x40028000
  4010dc:	20400134 	.word	0x20400134

004010e0 <_usart_get_hardware_index>:

/**
 * \brief Retrieve ordinal number of the given usart hardware instance
 */
static uint8_t _usart_get_hardware_index(const void *const hw)
{
  4010e0:	b510      	push	{r4, lr}
	ASSERT(hw);
  4010e2:	4604      	mov	r4, r0
  4010e4:	f240 222f 	movw	r2, #559	; 0x22f
  4010e8:	4905      	ldr	r1, [pc, #20]	; (401100 <_usart_get_hardware_index+0x20>)
  4010ea:	3000      	adds	r0, #0
  4010ec:	bf18      	it	ne
  4010ee:	2001      	movne	r0, #1
  4010f0:	4b04      	ldr	r3, [pc, #16]	; (401104 <_usart_get_hardware_index+0x24>)
  4010f2:	4798      	blx	r3

#ifdef _UNIT_TEST_
	return ((uint32_t)hw - (uint32_t)USART0) / sizeof(Usart);
#endif

	return ((uint32_t)hw - (uint32_t)USART0) >> 14;
  4010f4:	4804      	ldr	r0, [pc, #16]	; (401108 <_usart_get_hardware_index+0x28>)
  4010f6:	4420      	add	r0, r4
}
  4010f8:	f3c0 3087 	ubfx	r0, r0, #14, #8
  4010fc:	bd10      	pop	{r4, pc}
  4010fe:	bf00      	nop
  401100:	0040188c 	.word	0x0040188c
  401104:	00400ac9 	.word	0x00400ac9
  401108:	bffdc000 	.word	0xbffdc000

0040110c <_get_usart_index>:
 * \param[in] hw The pointer to hardware instance

 * \return The ordinal number of the given usart hardware instance
 */
static uint8_t _get_usart_index(const void *const hw)
{
  40110c:	b510      	push	{r4, lr}
	ASSERT(hw);
  40110e:	4604      	mov	r4, r0
  401110:	f44f 722d 	mov.w	r2, #692	; 0x2b4
  401114:	490e      	ldr	r1, [pc, #56]	; (401150 <_get_usart_index+0x44>)
  401116:	3000      	adds	r0, #0
  401118:	bf18      	it	ne
  40111a:	2001      	movne	r0, #1
  40111c:	4b0d      	ldr	r3, [pc, #52]	; (401154 <_get_usart_index+0x48>)
  40111e:	4798      	blx	r3
	uint8_t usart_offset = _usart_get_hardware_index(hw);
  401120:	4620      	mov	r0, r4
  401122:	4b0d      	ldr	r3, [pc, #52]	; (401158 <_get_usart_index+0x4c>)
  401124:	4798      	blx	r3
	uint8_t i;

	for (i = 0; i < ARRAY_SIZE(_usarts); i++) {
  401126:	2300      	movs	r3, #0
  401128:	b143      	cbz	r3, 40113c <_get_usart_index+0x30>
		if (_usarts[i].number == usart_offset) {
			return i;
		}
	}

	ASSERT(false);
  40112a:	f240 22be 	movw	r2, #702	; 0x2be
  40112e:	4908      	ldr	r1, [pc, #32]	; (401150 <_get_usart_index+0x44>)
  401130:	2000      	movs	r0, #0
  401132:	4b08      	ldr	r3, [pc, #32]	; (401154 <_get_usart_index+0x48>)
  401134:	4798      	blx	r3
	return 0;
  401136:	2300      	movs	r3, #0
}
  401138:	4618      	mov	r0, r3
  40113a:	bd10      	pop	{r4, pc}
		if (_usarts[i].number == usart_offset) {
  40113c:	eb03 0143 	add.w	r1, r3, r3, lsl #1
  401140:	008a      	lsls	r2, r1, #2
  401142:	4906      	ldr	r1, [pc, #24]	; (40115c <_get_usart_index+0x50>)
  401144:	5c8a      	ldrb	r2, [r1, r2]
  401146:	4290      	cmp	r0, r2
  401148:	d0f6      	beq.n	401138 <_get_usart_index+0x2c>
	for (i = 0; i < ARRAY_SIZE(_usarts); i++) {
  40114a:	3301      	adds	r3, #1
  40114c:	b2db      	uxtb	r3, r3
  40114e:	e7eb      	b.n	401128 <_get_usart_index+0x1c>
  401150:	0040188c 	.word	0x0040188c
  401154:	00400ac9 	.word	0x00400ac9
  401158:	004010e1 	.word	0x004010e1
  40115c:	00401880 	.word	0x00401880

00401160 <_usart_init>:
 * \param[in] hw The pointer to hardware instance
 *
 * \return The status of initialization
 */
static int32_t _usart_init(void *const hw)
{
  401160:	b510      	push	{r4, lr}
	ASSERT(hw);
  401162:	4604      	mov	r4, r0
  401164:	f240 22cb 	movw	r2, #715	; 0x2cb
  401168:	4911      	ldr	r1, [pc, #68]	; (4011b0 <_usart_init+0x50>)
  40116a:	3000      	adds	r0, #0
  40116c:	bf18      	it	ne
  40116e:	2001      	movne	r0, #1
  401170:	4b10      	ldr	r3, [pc, #64]	; (4011b4 <_usart_init+0x54>)
  401172:	4798      	blx	r3
	uint8_t i = _get_usart_index(hw);
  401174:	4620      	mov	r0, r4
  401176:	4b10      	ldr	r3, [pc, #64]	; (4011b8 <_usart_init+0x58>)
  401178:	4798      	blx	r3
}

static inline void hri_usart_write_US_WPMR_reg(const void *const hw, hri_usart_us_wpmr_reg_t data)
{
	USART_CRITICAL_SECTION_ENTER();
	((Usart *)hw)->US_WPMR = data;
  40117a:	4b10      	ldr	r3, [pc, #64]	; (4011bc <_usart_init+0x5c>)
  40117c:	f8c4 30e4 	str.w	r3, [r4, #228]	; 0xe4
	((Usart *)hw)->US_MR = data;
  401180:	2300      	movs	r3, #0
  401182:	6063      	str	r3, [r4, #4]
	((Usart *)hw)->US_RTOR = data;
  401184:	6263      	str	r3, [r4, #36]	; 0x24
	((Usart *)hw)->US_TTGR = data;
  401186:	62a3      	str	r3, [r4, #40]	; 0x28
}

static inline void hri_usart_write_US_CR_reg(const void *const hw, hri_usart_us_cr_reg_t data)
{
	USART_CRITICAL_SECTION_ENTER();
	((Usart *)hw)->US_CR = data;
  401188:	22ac      	movs	r2, #172	; 0xac
  40118a:	6022      	str	r2, [r4, #0]
  40118c:	f44f 7280 	mov.w	r2, #256	; 0x100
  401190:	6022      	str	r2, [r4, #0]
  401192:	f44f 2200 	mov.w	r2, #524288	; 0x80000
  401196:	6022      	str	r2, [r4, #0]
	/* Reset status bits. */
	hri_usart_write_US_CR_reg(hw, US_CR_RSTSTA);
	/* Turn off RTS and DTR if exist. */
	hri_usart_write_US_CR_reg(hw, US_CR_USART_RTSDIS);

	hri_usart_write_US_MR_reg(hw, _usarts[i].us_mr);
  401198:	eb00 0040 	add.w	r0, r0, r0, lsl #1
  40119c:	0081      	lsls	r1, r0, #2
  40119e:	4a08      	ldr	r2, [pc, #32]	; (4011c0 <_usart_init+0x60>)
  4011a0:	440a      	add	r2, r1
  4011a2:	6852      	ldr	r2, [r2, #4]
	((Usart *)hw)->US_MR = data;
  4011a4:	6062      	str	r2, [r4, #4]
	((Usart *)hw)->US_BRGR = data;
  4011a6:	4a07      	ldr	r2, [pc, #28]	; (4011c4 <_usart_init+0x64>)
  4011a8:	6222      	str	r2, [r4, #32]
	hri_usart_write_US_BRGR_reg(hw, _usarts[i].us_brgr);

	return ERR_NONE;
}
  4011aa:	4618      	mov	r0, r3
  4011ac:	bd10      	pop	{r4, pc}
  4011ae:	bf00      	nop
  4011b0:	0040188c 	.word	0x0040188c
  4011b4:	00400ac9 	.word	0x00400ac9
  4011b8:	0040110d 	.word	0x0040110d
  4011bc:	55534100 	.word	0x55534100
  4011c0:	00401880 	.word	0x00401880
  4011c4:	000403d0 	.word	0x000403d0

004011c8 <_usart_get_irq_num>:
{
  4011c8:	b510      	push	{r4, lr}
	ASSERT(hw);
  4011ca:	4604      	mov	r4, r0
  4011cc:	22ae      	movs	r2, #174	; 0xae
  4011ce:	4906      	ldr	r1, [pc, #24]	; (4011e8 <_usart_get_irq_num+0x20>)
  4011d0:	3000      	adds	r0, #0
  4011d2:	bf18      	it	ne
  4011d4:	2001      	movne	r0, #1
  4011d6:	4b05      	ldr	r3, [pc, #20]	; (4011ec <_usart_get_irq_num+0x24>)
  4011d8:	4798      	blx	r3
	return USART0_IRQn + _usart_get_hardware_index(hw);
  4011da:	4620      	mov	r0, r4
  4011dc:	4b04      	ldr	r3, [pc, #16]	; (4011f0 <_usart_get_irq_num+0x28>)
  4011de:	4798      	blx	r3
  4011e0:	300d      	adds	r0, #13
}
  4011e2:	b2c0      	uxtb	r0, r0
  4011e4:	bd10      	pop	{r4, pc}
  4011e6:	bf00      	nop
  4011e8:	0040188c 	.word	0x0040188c
  4011ec:	00400ac9 	.word	0x00400ac9
  4011f0:	004010e1 	.word	0x004010e1

004011f4 <_usart_interrupt_handler>:
{
  4011f4:	b510      	push	{r4, lr}
	ASSERT(device);
  4011f6:	4604      	mov	r4, r0
  4011f8:	f240 2289 	movw	r2, #649	; 0x289
  4011fc:	4923      	ldr	r1, [pc, #140]	; (40128c <_usart_interrupt_handler+0x98>)
  4011fe:	3000      	adds	r0, #0
  401200:	bf18      	it	ne
  401202:	2001      	movne	r0, #1
  401204:	4b22      	ldr	r3, [pc, #136]	; (401290 <_usart_interrupt_handler+0x9c>)
  401206:	4798      	blx	r3
	void *hw = device->hw;
  401208:	69a3      	ldr	r3, [r4, #24]
	return (((Usart *)hw)->US_CSR & US_CSR_TXRDY) > 0;
  40120a:	695a      	ldr	r2, [r3, #20]
	if (hri_usart_get_US_CSR_TXRDY_bit(hw) && hri_usart_get_US_IMR_TXRDY_bit(hw)) {
  40120c:	f012 0f02 	tst.w	r2, #2
  401210:	d003      	beq.n	40121a <_usart_interrupt_handler+0x26>
	return (((Usart *)hw)->US_IMR & US_IMR_TXRDY) >> US_IMR_TXRDY_Pos;
  401212:	691a      	ldr	r2, [r3, #16]
  401214:	f012 0f02 	tst.w	r2, #2
  401218:	d118      	bne.n	40124c <_usart_interrupt_handler+0x58>
	return (((Usart *)hw)->US_CSR & US_CSR_TXEMPTY) > 0;
  40121a:	695a      	ldr	r2, [r3, #20]
	} else if (hri_usart_get_US_CSR_TXEMPTY_bit(hw) && hri_usart_get_US_IMR_TXEMPTY_bit(hw)) {
  40121c:	f412 7f00 	tst.w	r2, #512	; 0x200
  401220:	d003      	beq.n	40122a <_usart_interrupt_handler+0x36>
	return (((Usart *)hw)->US_IMR & US_IMR_TXEMPTY) >> US_IMR_TXEMPTY_Pos;
  401222:	691a      	ldr	r2, [r3, #16]
  401224:	f412 7f00 	tst.w	r2, #512	; 0x200
  401228:	d116      	bne.n	401258 <_usart_interrupt_handler+0x64>
	return (((Usart *)hw)->US_CSR & US_CSR_RXRDY) > 0;
  40122a:	695a      	ldr	r2, [r3, #20]
	} else if (hri_usart_get_US_CSR_RXRDY_bit(hw) && hri_usart_get_US_IMR_RXRDY_bit(hw)) {
  40122c:	f012 0f01 	tst.w	r2, #1
  401230:	d01f      	beq.n	401272 <_usart_interrupt_handler+0x7e>
	return (((Usart *)hw)->US_IMR & US_IMR_RXRDY) >> US_IMR_RXRDY_Pos;
  401232:	691a      	ldr	r2, [r3, #16]
  401234:	f012 0f01 	tst.w	r2, #1
  401238:	d01b      	beq.n	401272 <_usart_interrupt_handler+0x7e>
	return ((Usart *)hw)->US_CSR;
  40123a:	6959      	ldr	r1, [r3, #20]
		if (hri_usart_read_US_CSR_reg(hw) &
  40123c:	4a15      	ldr	r2, [pc, #84]	; (401294 <_usart_interrupt_handler+0xa0>)
  40123e:	4211      	tst	r1, r2
  401240:	d011      	beq.n	401266 <_usart_interrupt_handler+0x72>
	return ((Usart *)hw)->US_RHR;
  401242:	699a      	ldr	r2, [r3, #24]
	((Usart *)hw)->US_CR = data;
  401244:	f44f 7280 	mov.w	r2, #256	; 0x100
  401248:	601a      	str	r2, [r3, #0]
  40124a:	bd10      	pop	{r4, pc}
	((Usart *)hw)->US_IDR = US_IMR_TXRDY;
  40124c:	2202      	movs	r2, #2
  40124e:	60da      	str	r2, [r3, #12]
		device->usart_cb.tx_byte_sent(device);
  401250:	6823      	ldr	r3, [r4, #0]
  401252:	4620      	mov	r0, r4
  401254:	4798      	blx	r3
  401256:	bd10      	pop	{r4, pc}
	((Usart *)hw)->US_IDR = US_IMR_TXEMPTY;
  401258:	f44f 7200 	mov.w	r2, #512	; 0x200
  40125c:	60da      	str	r2, [r3, #12]
		device->usart_cb.tx_done_cb(device);
  40125e:	68a3      	ldr	r3, [r4, #8]
  401260:	4620      	mov	r0, r4
  401262:	4798      	blx	r3
  401264:	bd10      	pop	{r4, pc}
		device->usart_cb.rx_done_cb(device, (uint8_t)hri_usart_read_US_RHR_reg(hw));
  401266:	6862      	ldr	r2, [r4, #4]
	return ((Usart *)hw)->US_RHR;
  401268:	6999      	ldr	r1, [r3, #24]
  40126a:	b2c9      	uxtb	r1, r1
  40126c:	4620      	mov	r0, r4
  40126e:	4790      	blx	r2
  401270:	bd10      	pop	{r4, pc}
	return ((Usart *)hw)->US_CSR;
  401272:	6959      	ldr	r1, [r3, #20]
	} else if (hri_usart_read_US_CSR_reg(hw) &
  401274:	4a07      	ldr	r2, [pc, #28]	; (401294 <_usart_interrupt_handler+0xa0>)
  401276:	4211      	tst	r1, r2
  401278:	d100      	bne.n	40127c <_usart_interrupt_handler+0x88>
  40127a:	bd10      	pop	{r4, pc}
	((Usart *)hw)->US_CR = data;
  40127c:	f44f 7280 	mov.w	r2, #256	; 0x100
  401280:	601a      	str	r2, [r3, #0]
		device->usart_cb.error_cb(device);
  401282:	68e3      	ldr	r3, [r4, #12]
  401284:	4620      	mov	r0, r4
  401286:	4798      	blx	r3
  401288:	e7f7      	b.n	40127a <_usart_interrupt_handler+0x86>
  40128a:	bf00      	nop
  40128c:	0040188c 	.word	0x0040188c
  401290:	00400ac9 	.word	0x00400ac9
  401294:	010000e0 	.word	0x010000e0

00401298 <_usart_async_init>:
{
  401298:	b570      	push	{r4, r5, r6, lr}
  40129a:	460c      	mov	r4, r1
	ASSERT(device);
  40129c:	4606      	mov	r6, r0
  40129e:	22d1      	movs	r2, #209	; 0xd1
  4012a0:	4922      	ldr	r1, [pc, #136]	; (40132c <_usart_async_init+0x94>)
  4012a2:	3000      	adds	r0, #0
  4012a4:	bf18      	it	ne
  4012a6:	2001      	movne	r0, #1
  4012a8:	4b21      	ldr	r3, [pc, #132]	; (401330 <_usart_async_init+0x98>)
  4012aa:	4798      	blx	r3
	init_status = _usart_init(hw);
  4012ac:	4620      	mov	r0, r4
  4012ae:	4b21      	ldr	r3, [pc, #132]	; (401334 <_usart_async_init+0x9c>)
  4012b0:	4798      	blx	r3
	if (init_status) {
  4012b2:	4605      	mov	r5, r0
  4012b4:	b108      	cbz	r0, 4012ba <_usart_async_init+0x22>
}
  4012b6:	4628      	mov	r0, r5
  4012b8:	bd70      	pop	{r4, r5, r6, pc}
	device->hw = hw;
  4012ba:	61b4      	str	r4, [r6, #24]
	_usart_init_irq_param(hw, device);
  4012bc:	4631      	mov	r1, r6
  4012be:	4620      	mov	r0, r4
  4012c0:	4b1d      	ldr	r3, [pc, #116]	; (401338 <_usart_async_init+0xa0>)
  4012c2:	4798      	blx	r3
	NVIC_DisableIRQ((IRQn_Type)_usart_get_irq_num(hw));
  4012c4:	4620      	mov	r0, r4
  4012c6:	4b1d      	ldr	r3, [pc, #116]	; (40133c <_usart_async_init+0xa4>)
  4012c8:	4798      	blx	r3
  4012ca:	b243      	sxtb	r3, r0
  if ((int32_t)(IRQn) >= 0)
  4012cc:	2b00      	cmp	r3, #0
  4012ce:	db0d      	blt.n	4012ec <_usart_async_init+0x54>
    NVIC->ICER[(((uint32_t)IRQn) >> 5UL)] = (uint32_t)(1UL << (((uint32_t)IRQn) & 0x1FUL));
  4012d0:	095b      	lsrs	r3, r3, #5
  4012d2:	f000 001f 	and.w	r0, r0, #31
  4012d6:	2201      	movs	r2, #1
  4012d8:	fa02 f000 	lsl.w	r0, r2, r0
  4012dc:	3320      	adds	r3, #32
  4012de:	4a18      	ldr	r2, [pc, #96]	; (401340 <_usart_async_init+0xa8>)
  4012e0:	f842 0023 	str.w	r0, [r2, r3, lsl #2]
  __ASM volatile ("dsb 0xF":::"memory");
  4012e4:	f3bf 8f4f 	dsb	sy
  __ASM volatile ("isb 0xF":::"memory");
  4012e8:	f3bf 8f6f 	isb	sy
	NVIC_ClearPendingIRQ((IRQn_Type)_usart_get_irq_num(hw));
  4012ec:	4620      	mov	r0, r4
  4012ee:	4b13      	ldr	r3, [pc, #76]	; (40133c <_usart_async_init+0xa4>)
  4012f0:	4798      	blx	r3
  4012f2:	b243      	sxtb	r3, r0
  if ((int32_t)(IRQn) >= 0)
  4012f4:	2b00      	cmp	r3, #0
  4012f6:	db09      	blt.n	40130c <_usart_async_init+0x74>
    NVIC->ICPR[(((uint32_t)IRQn) >> 5UL)] = (uint32_t)(1UL << (((uint32_t)IRQn) & 0x1FUL));
  4012f8:	095b      	lsrs	r3, r3, #5
  4012fa:	f000 001f 	and.w	r0, r0, #31
  4012fe:	2201      	movs	r2, #1
  401300:	fa02 f000 	lsl.w	r0, r2, r0
  401304:	3360      	adds	r3, #96	; 0x60
  401306:	4a0e      	ldr	r2, [pc, #56]	; (401340 <_usart_async_init+0xa8>)
  401308:	f842 0023 	str.w	r0, [r2, r3, lsl #2]
	NVIC_EnableIRQ((IRQn_Type)_usart_get_irq_num(hw));
  40130c:	4620      	mov	r0, r4
  40130e:	4b0b      	ldr	r3, [pc, #44]	; (40133c <_usart_async_init+0xa4>)
  401310:	4798      	blx	r3
  401312:	b243      	sxtb	r3, r0
  if ((int32_t)(IRQn) >= 0)
  401314:	2b00      	cmp	r3, #0
  401316:	dbce      	blt.n	4012b6 <_usart_async_init+0x1e>
    NVIC->ISER[(((uint32_t)IRQn) >> 5UL)] = (uint32_t)(1UL << (((uint32_t)IRQn) & 0x1FUL));
  401318:	095b      	lsrs	r3, r3, #5
  40131a:	f000 001f 	and.w	r0, r0, #31
  40131e:	2201      	movs	r2, #1
  401320:	fa02 f000 	lsl.w	r0, r2, r0
  401324:	4a06      	ldr	r2, [pc, #24]	; (401340 <_usart_async_init+0xa8>)
  401326:	f842 0023 	str.w	r0, [r2, r3, lsl #2]
  40132a:	e7c4      	b.n	4012b6 <_usart_async_init+0x1e>
  40132c:	0040188c 	.word	0x0040188c
  401330:	00400ac9 	.word	0x00400ac9
  401334:	00401161 	.word	0x00401161
  401338:	004010c9 	.word	0x004010c9
  40133c:	004011c9 	.word	0x004011c9
  401340:	e000e100 	.word	0xe000e100

00401344 <_usart_async_enable>:
{
  401344:	b570      	push	{r4, r5, r6, lr}
	ASSERT(device);
  401346:	4e0a      	ldr	r6, [pc, #40]	; (401370 <_usart_async_enable+0x2c>)
  401348:	4604      	mov	r4, r0
  40134a:	f240 1213 	movw	r2, #275	; 0x113
  40134e:	4631      	mov	r1, r6
  401350:	3000      	adds	r0, #0
  401352:	bf18      	it	ne
  401354:	2001      	movne	r0, #1
  401356:	4d07      	ldr	r5, [pc, #28]	; (401374 <_usart_async_enable+0x30>)
  401358:	47a8      	blx	r5
	_usart_enable(device->hw);
  40135a:	69a4      	ldr	r4, [r4, #24]
 *
 * \param[in] hw The pointer to hardware instance
 */
static inline void _usart_enable(void *const hw)
{
	ASSERT(hw);
  40135c:	f44f 723d 	mov.w	r2, #756	; 0x2f4
  401360:	4631      	mov	r1, r6
  401362:	1c20      	adds	r0, r4, #0
  401364:	bf18      	it	ne
  401366:	2001      	movne	r0, #1
  401368:	47a8      	blx	r5
  40136a:	2350      	movs	r3, #80	; 0x50
  40136c:	6023      	str	r3, [r4, #0]
  40136e:	bd70      	pop	{r4, r5, r6, pc}
  401370:	0040188c 	.word	0x0040188c
  401374:	00400ac9 	.word	0x00400ac9

00401378 <_usart_async_write_byte>:
{
  401378:	b538      	push	{r3, r4, r5, lr}
  40137a:	460c      	mov	r4, r1
	ASSERT(device);
  40137c:	4605      	mov	r5, r0
  40137e:	f240 12b5 	movw	r2, #437	; 0x1b5
  401382:	4904      	ldr	r1, [pc, #16]	; (401394 <_usart_async_write_byte+0x1c>)
  401384:	3000      	adds	r0, #0
  401386:	bf18      	it	ne
  401388:	2001      	movne	r0, #1
  40138a:	4b03      	ldr	r3, [pc, #12]	; (401398 <_usart_async_write_byte+0x20>)
  40138c:	4798      	blx	r3
	hri_usart_write_US_THR_reg(device->hw, (hri_usart_us_thr_reg_t)data);
  40138e:	69ab      	ldr	r3, [r5, #24]
}

static inline void hri_usart_write_US_THR_reg(const void *const hw, hri_usart_us_thr_reg_t data)
{
	USART_CRITICAL_SECTION_ENTER();
	((Usart *)hw)->US_THR = data;
  401390:	61dc      	str	r4, [r3, #28]
  401392:	bd38      	pop	{r3, r4, r5, pc}
  401394:	0040188c 	.word	0x0040188c
  401398:	00400ac9 	.word	0x00400ac9

0040139c <_usart_async_enable_byte_sent_irq>:
{
  40139c:	b510      	push	{r4, lr}
	ASSERT(device);
  40139e:	4604      	mov	r4, r0
  4013a0:	f240 221d 	movw	r2, #541	; 0x21d
  4013a4:	4904      	ldr	r1, [pc, #16]	; (4013b8 <_usart_async_enable_byte_sent_irq+0x1c>)
  4013a6:	3000      	adds	r0, #0
  4013a8:	bf18      	it	ne
  4013aa:	2001      	movne	r0, #1
  4013ac:	4b03      	ldr	r3, [pc, #12]	; (4013bc <_usart_async_enable_byte_sent_irq+0x20>)
  4013ae:	4798      	blx	r3
	hri_usart_set_US_IMR_TXRDY_bit(device->hw);
  4013b0:	69a3      	ldr	r3, [r4, #24]
	((Usart *)hw)->US_IER = US_IMR_TXRDY;
  4013b2:	2202      	movs	r2, #2
  4013b4:	609a      	str	r2, [r3, #8]
  4013b6:	bd10      	pop	{r4, pc}
  4013b8:	0040188c 	.word	0x0040188c
  4013bc:	00400ac9 	.word	0x00400ac9

004013c0 <_usart_async_enable_tx_done_irq>:
{
  4013c0:	b510      	push	{r4, lr}
	ASSERT(device);
  4013c2:	4604      	mov	r4, r0
  4013c4:	f240 2226 	movw	r2, #550	; 0x226
  4013c8:	4905      	ldr	r1, [pc, #20]	; (4013e0 <_usart_async_enable_tx_done_irq+0x20>)
  4013ca:	3000      	adds	r0, #0
  4013cc:	bf18      	it	ne
  4013ce:	2001      	movne	r0, #1
  4013d0:	4b04      	ldr	r3, [pc, #16]	; (4013e4 <_usart_async_enable_tx_done_irq+0x24>)
  4013d2:	4798      	blx	r3
	hri_usart_set_US_IMR_TXEMPTY_bit(device->hw);
  4013d4:	69a3      	ldr	r3, [r4, #24]
	((Usart *)hw)->US_IER = US_IMR_TXEMPTY;
  4013d6:	f44f 7200 	mov.w	r2, #512	; 0x200
  4013da:	609a      	str	r2, [r3, #8]
  4013dc:	bd10      	pop	{r4, pc}
  4013de:	bf00      	nop
  4013e0:	0040188c 	.word	0x0040188c
  4013e4:	00400ac9 	.word	0x00400ac9

004013e8 <_usart_async_set_irq_state>:
{
  4013e8:	b570      	push	{r4, r5, r6, lr}
  4013ea:	460c      	mov	r4, r1
  4013ec:	4616      	mov	r6, r2
	ASSERT(device);
  4013ee:	4605      	mov	r5, r0
  4013f0:	f44f 7214 	mov.w	r2, #592	; 0x250
  4013f4:	491b      	ldr	r1, [pc, #108]	; (401464 <_usart_async_set_irq_state+0x7c>)
  4013f6:	3000      	adds	r0, #0
  4013f8:	bf18      	it	ne
  4013fa:	2001      	movne	r0, #1
  4013fc:	4b1a      	ldr	r3, [pc, #104]	; (401468 <_usart_async_set_irq_state+0x80>)
  4013fe:	4798      	blx	r3
	if (state) {
  401400:	b1c6      	cbz	r6, 401434 <_usart_async_set_irq_state+0x4c>
		if (USART_ASYNC_BYTE_SENT == type || USART_ASYNC_TX_DONE == type) {
  401402:	2c02      	cmp	r4, #2
  401404:	bf18      	it	ne
  401406:	2c00      	cmpne	r4, #0
  401408:	d004      	beq.n	401414 <_usart_async_set_irq_state+0x2c>
		} else if (USART_ASYNC_RX_DONE == type) {
  40140a:	2c01      	cmp	r4, #1
  40140c:	d00a      	beq.n	401424 <_usart_async_set_irq_state+0x3c>
		} else if (USART_ASYNC_ERROR == type) {
  40140e:	2c03      	cmp	r4, #3
  401410:	d00c      	beq.n	40142c <_usart_async_set_irq_state+0x44>
  401412:	bd70      	pop	{r4, r5, r6, pc}
			hri_usart_set_US_IMR_TXRDY_bit(device->hw);
  401414:	69ab      	ldr	r3, [r5, #24]
	((Usart *)hw)->US_IER = US_IMR_TXRDY;
  401416:	2202      	movs	r2, #2
  401418:	609a      	str	r2, [r3, #8]
			hri_usart_set_US_IMR_TXEMPTY_bit(device->hw);
  40141a:	69ab      	ldr	r3, [r5, #24]
	((Usart *)hw)->US_IER = US_IMR_TXEMPTY;
  40141c:	f44f 7200 	mov.w	r2, #512	; 0x200
  401420:	609a      	str	r2, [r3, #8]
  401422:	bd70      	pop	{r4, r5, r6, pc}
			hri_usart_set_US_IMR_RXRDY_bit(device->hw);
  401424:	69ab      	ldr	r3, [r5, #24]
	((Usart *)hw)->US_IER = US_IMR_RXRDY;
  401426:	2201      	movs	r2, #1
  401428:	609a      	str	r2, [r3, #8]
  40142a:	bd70      	pop	{r4, r5, r6, pc}
			    device->hw, US_CSR_OVRE | US_CSR_USART_LIN_FRAME | US_CSR_USART_LIN_PARE | US_CSR_USART_MANERR);
  40142c:	69ab      	ldr	r3, [r5, #24]
	((Usart *)hw)->US_IER = mask;
  40142e:	4a0f      	ldr	r2, [pc, #60]	; (40146c <_usart_async_set_irq_state+0x84>)
  401430:	609a      	str	r2, [r3, #8]
  401432:	bd70      	pop	{r4, r5, r6, pc}
		if (USART_ASYNC_BYTE_SENT == type || USART_ASYNC_TX_DONE == type) {
  401434:	2c02      	cmp	r4, #2
  401436:	bf18      	it	ne
  401438:	2c00      	cmpne	r4, #0
  40143a:	d007      	beq.n	40144c <_usart_async_set_irq_state+0x64>
		} else if (USART_ASYNC_RX_DONE == type) {
  40143c:	2c01      	cmp	r4, #1
  40143e:	d00d      	beq.n	40145c <_usart_async_set_irq_state+0x74>
		} else if (USART_ASYNC_ERROR == type) {
  401440:	2c03      	cmp	r4, #3
  401442:	d1e6      	bne.n	401412 <_usart_async_set_irq_state+0x2a>
			    device->hw, US_CSR_OVRE | US_CSR_USART_LIN_FRAME | US_CSR_USART_LIN_PARE | US_CSR_USART_MANERR);
  401444:	69ab      	ldr	r3, [r5, #24]
	((Usart *)hw)->US_IDR = mask;
  401446:	4a09      	ldr	r2, [pc, #36]	; (40146c <_usart_async_set_irq_state+0x84>)
  401448:	60da      	str	r2, [r3, #12]
}
  40144a:	e7e2      	b.n	401412 <_usart_async_set_irq_state+0x2a>
			hri_usart_clear_US_IMR_TXRDY_bit(device->hw);
  40144c:	69ab      	ldr	r3, [r5, #24]
	((Usart *)hw)->US_IDR = US_IMR_TXRDY;
  40144e:	2202      	movs	r2, #2
  401450:	60da      	str	r2, [r3, #12]
			hri_usart_clear_US_IMR_TXEMPTY_bit(device->hw);
  401452:	69ab      	ldr	r3, [r5, #24]
	((Usart *)hw)->US_IDR = US_IMR_TXEMPTY;
  401454:	f44f 7200 	mov.w	r2, #512	; 0x200
  401458:	60da      	str	r2, [r3, #12]
  40145a:	bd70      	pop	{r4, r5, r6, pc}
			hri_usart_clear_US_IMR_RXRDY_bit(device->hw);
  40145c:	69ab      	ldr	r3, [r5, #24]
	((Usart *)hw)->US_IDR = US_IMR_RXRDY;
  40145e:	2201      	movs	r2, #1
  401460:	60da      	str	r2, [r3, #12]
  401462:	bd70      	pop	{r4, r5, r6, pc}
  401464:	0040188c 	.word	0x0040188c
  401468:	00400ac9 	.word	0x00400ac9
  40146c:	010000e0 	.word	0x010000e0

00401470 <_usart_get_usart_async>:
}
  401470:	2000      	movs	r0, #0
  401472:	4770      	bx	lr

00401474 <USART1_Handler>:
{
  401474:	b508      	push	{r3, lr}
	_usart_interrupt_handler(_usart1_dev);
  401476:	4b02      	ldr	r3, [pc, #8]	; (401480 <USART1_Handler+0xc>)
  401478:	6818      	ldr	r0, [r3, #0]
  40147a:	4b02      	ldr	r3, [pc, #8]	; (401484 <USART1_Handler+0x10>)
  40147c:	4798      	blx	r3
  40147e:	bd08      	pop	{r3, pc}
  401480:	20400134 	.word	0x20400134
  401484:	004011f5 	.word	0x004011f5

00401488 <timer_task_cb>:
 *
 */
static void timer_task_cb(const struct timer_task *const timer_task)
{
	// Toggle LED
	milliCounter++;
  401488:	490b      	ldr	r1, [pc, #44]	; (4014b8 <timer_task_cb+0x30>)
  40148a:	680b      	ldr	r3, [r1, #0]
  40148c:	3301      	adds	r3, #1
  40148e:	600b      	str	r3, [r1, #0]
	
	messageCounter++;
  401490:	684a      	ldr	r2, [r1, #4]
  401492:	3201      	adds	r2, #1
  401494:	604a      	str	r2, [r1, #4]

	// Check if it's time to send a message
	if (messageCounter >= MESSAGE_INTERVAL_MS) {
  401496:	2a1d      	cmp	r2, #29
  401498:	d904      	bls.n	4014a4 <timer_task_cb+0x1c>
		// Send serial message
		send_data_flag = 1;
  40149a:	460a      	mov	r2, r1
  40149c:	2101      	movs	r1, #1
  40149e:	7211      	strb	r1, [r2, #8]
		// Reset message counter
		messageCounter = 0;
  4014a0:	2100      	movs	r1, #0
  4014a2:	6051      	str	r1, [r2, #4]
	}

	// Reset millisecond counter every second
	if (milliCounter >= 1000) {
  4014a4:	f5b3 7f7a 	cmp.w	r3, #1000	; 0x3e8
  4014a8:	d305      	bcc.n	4014b6 <timer_task_cb+0x2e>
		milliCounter = 0;
  4014aa:	4b03      	ldr	r3, [pc, #12]	; (4014b8 <timer_task_cb+0x30>)
  4014ac:	2200      	movs	r2, #0
  4014ae:	601a      	str	r2, [r3, #0]
		secondCounter++;
  4014b0:	68da      	ldr	r2, [r3, #12]
  4014b2:	3201      	adds	r2, #1
  4014b4:	60da      	str	r2, [r3, #12]
  4014b6:	4770      	bx	lr
  4014b8:	20400138 	.word	0x20400138

004014bc <serial_tx_cb>:
	return entry;
}

// USART functions
// Virtual COM port transmit callback function
static void serial_tx_cb(const struct usart_async_descriptor *const io_descr) {
  4014bc:	4770      	bx	lr
	...

004014c0 <add_to_buffer>:
void add_to_buffer(uint8_t new_entry, uint8_t detector_id) {
  4014c0:	b430      	push	{r4, r5}
	detector_data[detector_id][end_index] = new_entry;
  4014c2:	4c16      	ldr	r4, [pc, #88]	; (40151c <add_to_buffer+0x5c>)
  4014c4:	6922      	ldr	r2, [r4, #16]
  4014c6:	f44f 737a 	mov.w	r3, #1000	; 0x3e8
  4014ca:	4d15      	ldr	r5, [pc, #84]	; (401520 <add_to_buffer+0x60>)
  4014cc:	fb03 5101 	mla	r1, r3, r1, r5
  4014d0:	5488      	strb	r0, [r1, r2]
	end_index = (end_index + 1) % DATA_LENGTH;
  4014d2:	3201      	adds	r2, #1
  4014d4:	4913      	ldr	r1, [pc, #76]	; (401524 <add_to_buffer+0x64>)
  4014d6:	fb81 3102 	smull	r3, r1, r1, r2
  4014da:	17d3      	asrs	r3, r2, #31
  4014dc:	ebc3 03a1 	rsb	r3, r3, r1, asr #2
  4014e0:	eb03 0383 	add.w	r3, r3, r3, lsl #2
  4014e4:	0059      	lsls	r1, r3, #1
  4014e6:	1a53      	subs	r3, r2, r1
  4014e8:	2264      	movs	r2, #100	; 0x64
  4014ea:	fb02 f303 	mul.w	r3, r2, r3
  4014ee:	6123      	str	r3, [r4, #16]
	if (end_index == start_index) {
  4014f0:	6962      	ldr	r2, [r4, #20]
  4014f2:	4293      	cmp	r3, r2
  4014f4:	d001      	beq.n	4014fa <add_to_buffer+0x3a>
}
  4014f6:	bc30      	pop	{r4, r5}
  4014f8:	4770      	bx	lr
		start_index = (start_index + 1) % DATA_LENGTH;
  4014fa:	3201      	adds	r2, #1
  4014fc:	4909      	ldr	r1, [pc, #36]	; (401524 <add_to_buffer+0x64>)
  4014fe:	fb81 3102 	smull	r3, r1, r1, r2
  401502:	17d3      	asrs	r3, r2, #31
  401504:	ebc3 03a1 	rsb	r3, r3, r1, asr #2
  401508:	eb03 0383 	add.w	r3, r3, r3, lsl #2
  40150c:	0059      	lsls	r1, r3, #1
  40150e:	1a53      	subs	r3, r2, r1
  401510:	2264      	movs	r2, #100	; 0x64
  401512:	fb02 f303 	mul.w	r3, r2, r3
  401516:	6163      	str	r3, [r4, #20]
}
  401518:	e7ed      	b.n	4014f6 <add_to_buffer+0x36>
  40151a:	bf00      	nop
  40151c:	20400138 	.word	0x20400138
  401520:	204002c4 	.word	0x204002c4
  401524:	66666667 	.word	0x66666667

00401528 <read_SPI_data>:
{
  401528:	b570      	push	{r4, r5, r6, lr}
  40152a:	b084      	sub	sp, #16
	spi_m_sync_get_io_descriptor(&SPI_0, &io);
  40152c:	a903      	add	r1, sp, #12
  40152e:	4813      	ldr	r0, [pc, #76]	; (40157c <read_SPI_data+0x54>)
  401530:	4b13      	ldr	r3, [pc, #76]	; (401580 <read_SPI_data+0x58>)
  401532:	4798      	blx	r3
	uint8_t cs_pins[4] = {CS_PIN_DEVICE1, CS_PIN_DEVICE2, CS_PIN_DEVICE3, CS_PIN_DEVICE4};
  401534:	4b13      	ldr	r3, [pc, #76]	; (401584 <read_SPI_data+0x5c>)
  401536:	681b      	ldr	r3, [r3, #0]
  401538:	9301      	str	r3, [sp, #4]
	for (int i = 0; i < 4; i++) {
  40153a:	2500      	movs	r5, #0
  40153c:	e019      	b.n	401572 <read_SPI_data+0x4a>
		gpio_set_pin_level(cs_pins[i], false); // set the pin low (select the device)
  40153e:	ab04      	add	r3, sp, #16
  401540:	442b      	add	r3, r5
  401542:	f813 4c0c 	ldrb.w	r4, [r3, #-12]
 * \param[in] level true  = Pin level set to "high" state
 *                  false = Pin level set to "low" state
 */
static inline void gpio_set_pin_level(const uint8_t pin, const bool level)
{
	_gpio_set_level((enum gpio_port)GPIO_PORT(pin), 1U << GPIO_PIN(pin), level);
  401546:	0963      	lsrs	r3, r4, #5
  401548:	f004 041f 	and.w	r4, r4, #31
  40154c:	2201      	movs	r2, #1
  40154e:	fa02 f404 	lsl.w	r4, r2, r4
 * \brief Transfer gpio_port to hardware address
 */
static inline void *port_to_reg(const enum gpio_port port)
{
	/* PIO instance offset is 0x200 */
	return (void *)((uint32_t)PIOA + port * 0x200);
  401552:	4e0d      	ldr	r6, [pc, #52]	; (401588 <read_SPI_data+0x60>)
  401554:	eb06 2643 	add.w	r6, r6, r3, lsl #9
	((Pio *)hw)->PIO_CODR = mask;
  401558:	6374      	str	r4, [r6, #52]	; 0x34
		io_read(io, &read_data, 1); // Read 1 bytes of data
  40155a:	f10d 010b 	add.w	r1, sp, #11
  40155e:	9803      	ldr	r0, [sp, #12]
  401560:	4b0a      	ldr	r3, [pc, #40]	; (40158c <read_SPI_data+0x64>)
  401562:	4798      	blx	r3
	((Pio *)hw)->PIO_SODR = mask;
  401564:	6334      	str	r4, [r6, #48]	; 0x30
		add_to_buffer(read_data, i);
  401566:	4629      	mov	r1, r5
  401568:	f89d 000b 	ldrb.w	r0, [sp, #11]
  40156c:	4b08      	ldr	r3, [pc, #32]	; (401590 <read_SPI_data+0x68>)
  40156e:	4798      	blx	r3
	for (int i = 0; i < 4; i++) {
  401570:	3501      	adds	r5, #1
  401572:	2d03      	cmp	r5, #3
  401574:	dde3      	ble.n	40153e <read_SPI_data+0x16>
}
  401576:	b004      	add	sp, #16
  401578:	bd70      	pop	{r4, r5, r6, pc}
  40157a:	bf00      	nop
  40157c:	20400240 	.word	0x20400240
  401580:	0040063d 	.word	0x0040063d
  401584:	004018a8 	.word	0x004018a8
  401588:	400e0e00 	.word	0x400e0e00
  40158c:	00400491 	.word	0x00400491
  401590:	004014c1 	.word	0x004014c1

00401594 <get_from_buffer>:
	if (start_index == end_index) {
  401594:	4a0f      	ldr	r2, [pc, #60]	; (4015d4 <get_from_buffer+0x40>)
  401596:	6953      	ldr	r3, [r2, #20]
  401598:	6912      	ldr	r2, [r2, #16]
  40159a:	4293      	cmp	r3, r2
  40159c:	d017      	beq.n	4015ce <get_from_buffer+0x3a>
	uint8_t entry = detector_data[detector_id][start_index];
  40159e:	f44f 717a 	mov.w	r1, #1000	; 0x3e8
  4015a2:	4a0d      	ldr	r2, [pc, #52]	; (4015d8 <get_from_buffer+0x44>)
  4015a4:	fb01 2000 	mla	r0, r1, r0, r2
  4015a8:	5cc0      	ldrb	r0, [r0, r3]
  4015aa:	b2c0      	uxtb	r0, r0
	start_index = (start_index + 1) % DATA_LENGTH;
  4015ac:	1c5a      	adds	r2, r3, #1
  4015ae:	490b      	ldr	r1, [pc, #44]	; (4015dc <get_from_buffer+0x48>)
  4015b0:	fb81 3102 	smull	r3, r1, r1, r2
  4015b4:	17d3      	asrs	r3, r2, #31
  4015b6:	ebc3 03a1 	rsb	r3, r3, r1, asr #2
  4015ba:	eb03 0383 	add.w	r3, r3, r3, lsl #2
  4015be:	0059      	lsls	r1, r3, #1
  4015c0:	1a53      	subs	r3, r2, r1
  4015c2:	2264      	movs	r2, #100	; 0x64
  4015c4:	fb02 f303 	mul.w	r3, r2, r3
  4015c8:	4a02      	ldr	r2, [pc, #8]	; (4015d4 <get_from_buffer+0x40>)
  4015ca:	6153      	str	r3, [r2, #20]
	return entry;
  4015cc:	4770      	bx	lr
		return 0xFF;
  4015ce:	20ff      	movs	r0, #255	; 0xff
}
  4015d0:	4770      	bx	lr
  4015d2:	bf00      	nop
  4015d4:	20400138 	.word	0x20400138
  4015d8:	204002c4 	.word	0x204002c4
  4015dc:	66666667 	.word	0x66666667

004015e0 <main>:

}


int main(void)
{
  4015e0:	b570      	push	{r4, r5, r6, lr}
  4015e2:	b086      	sub	sp, #24
	/* Initializes MCU, drivers and middleware */
	atmel_start_init();
  4015e4:	4b3a      	ldr	r3, [pc, #232]	; (4016d0 <main+0xf0>)
  4015e6:	4798      	blx	r3

	
	// Set up Timer Function
	task.interval = 1;
  4015e8:	493a      	ldr	r1, [pc, #232]	; (4016d4 <main+0xf4>)
  4015ea:	2401      	movs	r4, #1
  4015ec:	620c      	str	r4, [r1, #32]
	task.cb = timer_task_cb;
  4015ee:	4b3a      	ldr	r3, [pc, #232]	; (4016d8 <main+0xf8>)
  4015f0:	624b      	str	r3, [r1, #36]	; 0x24
	task.mode = TIMER_TASK_REPEAT;
  4015f2:	f881 4028 	strb.w	r4, [r1, #40]	; 0x28
	
	// Add timer task
	timer_add_task(&TIMER_0, &task);
  4015f6:	4d39      	ldr	r5, [pc, #228]	; (4016dc <main+0xfc>)
  4015f8:	3118      	adds	r1, #24
  4015fa:	4628      	mov	r0, r5
  4015fc:	4b38      	ldr	r3, [pc, #224]	; (4016e0 <main+0x100>)
  4015fe:	4798      	blx	r3
	timer_start(&TIMER_0);
  401600:	4628      	mov	r0, r5
  401602:	4b38      	ldr	r3, [pc, #224]	; (4016e4 <main+0x104>)
  401604:	4798      	blx	r3
	((Pio *)hw)->PIO_OER = mask;
  401606:	4b38      	ldr	r3, [pc, #224]	; (4016e8 <main+0x108>)
  401608:	f04f 5280 	mov.w	r2, #268435456	; 0x10000000
  40160c:	611a      	str	r2, [r3, #16]
  40160e:	f04f 5200 	mov.w	r2, #536870912	; 0x20000000
  401612:	611a      	str	r2, [r3, #16]
  401614:	f04f 4280 	mov.w	r2, #1073741824	; 0x40000000
  401618:	611a      	str	r2, [r3, #16]
  40161a:	f04f 4200 	mov.w	r2, #2147483648	; 0x80000000
  40161e:	611a      	str	r2, [r3, #16]
	gpio_set_pin_direction(CS_PIN_DEVICE2, GPIO_DIRECTION_OUT);
	gpio_set_pin_direction(CS_PIN_DEVICE3, GPIO_DIRECTION_OUT);
	gpio_set_pin_direction(CS_PIN_DEVICE4, GPIO_DIRECTION_OUT);
	
	// Enable SPI
	spi_m_sync_enable(&SPI_0);
  401620:	4832      	ldr	r0, [pc, #200]	; (4016ec <main+0x10c>)
  401622:	4b33      	ldr	r3, [pc, #204]	; (4016f0 <main+0x110>)
  401624:	4798      	blx	r3
	
	
		usart_async_register_callback(&USART_0, USART_ASYNC_TXC_CB, serial_tx_cb);
  401626:	4d33      	ldr	r5, [pc, #204]	; (4016f4 <main+0x114>)
  401628:	4a33      	ldr	r2, [pc, #204]	; (4016f8 <main+0x118>)
  40162a:	4621      	mov	r1, r4
  40162c:	4628      	mov	r0, r5
  40162e:	4b33      	ldr	r3, [pc, #204]	; (4016fc <main+0x11c>)
  401630:	4798      	blx	r3
	int32_t result = usart_async_enable(&USART_0);
  401632:	4628      	mov	r0, r5
  401634:	4b32      	ldr	r3, [pc, #200]	; (401700 <main+0x120>)
  401636:	4798      	blx	r3
	if (result == ERR_NONE) {
  401638:	bb50      	cbnz	r0, 401690 <main+0xb0>
		uint8_t startPrint [12] = "Serial ready";
  40163a:	ab01      	add	r3, sp, #4
  40163c:	4a31      	ldr	r2, [pc, #196]	; (401704 <main+0x124>)
  40163e:	ca07      	ldmia	r2, {r0, r1, r2}
  401640:	e883 0007 	stmia.w	r3, {r0, r1, r2}
		uint8_t newline[] = "\n";
  401644:	ac06      	add	r4, sp, #24
  401646:	220a      	movs	r2, #10
  401648:	f824 2d18 	strh.w	r2, [r4, #-24]!
		io_write(&USART_0.io, startPrint, 12);
  40164c:	462e      	mov	r6, r5
  40164e:	220c      	movs	r2, #12
  401650:	4619      	mov	r1, r3
  401652:	4628      	mov	r0, r5
  401654:	4d2c      	ldr	r5, [pc, #176]	; (401708 <main+0x128>)
  401656:	47a8      	blx	r5
		io_write(&USART_0.io, newline, sizeof(newline));
  401658:	2202      	movs	r2, #2
  40165a:	4621      	mov	r1, r4
  40165c:	4630      	mov	r0, r6
  40165e:	47a8      	blx	r5
  401660:	e016      	b.n	401690 <main+0xb0>
			memcpy(&buffer[index], &milliCounter, sizeof(milliCounter));
			index += sizeof(milliCounter);

			// add detector data to the buffer
			for (int i = 0; i < NUM_OF_DETECTOR; i++) {
				uint8_t detector = get_from_buffer(i);
  401662:	b2e0      	uxtb	r0, r4
  401664:	4b29      	ldr	r3, [pc, #164]	; (40170c <main+0x12c>)
  401666:	4798      	blx	r3
				buffer[index++] = detector;
  401668:	ab06      	add	r3, sp, #24
  40166a:	442b      	add	r3, r5
  40166c:	f803 0c14 	strb.w	r0, [r3, #-20]
			for (int i = 0; i < NUM_OF_DETECTOR; i++) {
  401670:	3401      	adds	r4, #1
				buffer[index++] = detector;
  401672:	3501      	adds	r5, #1
			for (int i = 0; i < NUM_OF_DETECTOR; i++) {
  401674:	2c03      	cmp	r4, #3
  401676:	ddf4      	ble.n	401662 <main+0x82>
			}



			// add endNum to the buffer
			memcpy(&buffer[index], &endNum, sizeof(endNum));
  401678:	a901      	add	r1, sp, #4
  40167a:	f44f 7396 	mov.w	r3, #300	; 0x12c
  40167e:	534b      	strh	r3, [r1, r5]
			index += sizeof(endNum);

			// write the entire buffer
			result = io_write(&USART_0.io, &buffer, sizeof(buffer));
  401680:	2212      	movs	r2, #18
  401682:	481c      	ldr	r0, [pc, #112]	; (4016f4 <main+0x114>)
  401684:	4b20      	ldr	r3, [pc, #128]	; (401708 <main+0x128>)
  401686:	4798      	blx	r3
  401688:	9000      	str	r0, [sp, #0]

			memset(&buffer,0x00,sizeof(buffer));

			send_data_flag = 0;
  40168a:	2200      	movs	r2, #0
  40168c:	4b11      	ldr	r3, [pc, #68]	; (4016d4 <main+0xf4>)
  40168e:	721a      	strb	r2, [r3, #8]
		read_SPI_data();
  401690:	4b1f      	ldr	r3, [pc, #124]	; (401710 <main+0x130>)
  401692:	4798      	blx	r3
		if (send_data_flag) {
  401694:	4b0f      	ldr	r3, [pc, #60]	; (4016d4 <main+0xf4>)
  401696:	7a1b      	ldrb	r3, [r3, #8]
  401698:	2b00      	cmp	r3, #0
  40169a:	d0f9      	beq.n	401690 <main+0xb0>
			uint8_t buffer[2 + sizeof(startNum) + sizeof(secondCounter) + sizeof(milliCounter) + NUM_OF_DETECTOR + sizeof(endNum)] = {0x00};
  40169c:	2400      	movs	r4, #0
  40169e:	9401      	str	r4, [sp, #4]
  4016a0:	9402      	str	r4, [sp, #8]
  4016a2:	9403      	str	r4, [sp, #12]
  4016a4:	9404      	str	r4, [sp, #16]
  4016a6:	f8ad 4014 	strh.w	r4, [sp, #20]
			volatile int result = 0;
  4016aa:	9400      	str	r4, [sp, #0]
			memcpy(&buffer[index], &startNum, sizeof(startNum));
  4016ac:	f44f 7380 	mov.w	r3, #256	; 0x100
  4016b0:	f8ad 3004 	strh.w	r3, [sp, #4]
			buffer[index++] = data_mode;
  4016b4:	4b17      	ldr	r3, [pc, #92]	; (401714 <main+0x134>)
  4016b6:	781b      	ldrb	r3, [r3, #0]
  4016b8:	f88d 3006 	strb.w	r3, [sp, #6]
			memcpy(&buffer[index], &secondCounter, sizeof(secondCounter));
  4016bc:	4b05      	ldr	r3, [pc, #20]	; (4016d4 <main+0xf4>)
  4016be:	68da      	ldr	r2, [r3, #12]
  4016c0:	f8cd 2007 	str.w	r2, [sp, #7]
			memcpy(&buffer[index], &milliCounter, sizeof(milliCounter));
  4016c4:	681b      	ldr	r3, [r3, #0]
  4016c6:	f8cd 300b 	str.w	r3, [sp, #11]
			index += sizeof(milliCounter);
  4016ca:	250b      	movs	r5, #11
			for (int i = 0; i < NUM_OF_DETECTOR; i++) {
  4016cc:	e7d2      	b.n	401674 <main+0x94>
  4016ce:	bf00      	nop
  4016d0:	004001d5 	.word	0x004001d5
  4016d4:	20400138 	.word	0x20400138
  4016d8:	00401489 	.word	0x00401489
  4016dc:	204002a8 	.word	0x204002a8
  4016e0:	00400799 	.word	0x00400799
  4016e4:	0040075d 	.word	0x0040075d
  4016e8:	400e0e00 	.word	0x400e0e00
  4016ec:	20400240 	.word	0x20400240
  4016f0:	0040055d 	.word	0x0040055d
  4016f4:	20400258 	.word	0x20400258
  4016f8:	004014bd 	.word	0x004014bd
  4016fc:	00400a55 	.word	0x00400a55
  401700:	00400a29 	.word	0x00400a29
  401704:	004018ac 	.word	0x004018ac
  401708:	00400461 	.word	0x00400461
  40170c:	00401595 	.word	0x00401595
  401710:	00401529 	.word	0x00401529
  401714:	20400024 	.word	0x20400024

00401718 <__libc_init_array>:
  401718:	b570      	push	{r4, r5, r6, lr}
  40171a:	4e0d      	ldr	r6, [pc, #52]	; (401750 <__libc_init_array+0x38>)
  40171c:	4c0d      	ldr	r4, [pc, #52]	; (401754 <__libc_init_array+0x3c>)
  40171e:	1ba4      	subs	r4, r4, r6
  401720:	10a4      	asrs	r4, r4, #2
  401722:	2500      	movs	r5, #0
  401724:	42a5      	cmp	r5, r4
  401726:	d109      	bne.n	40173c <__libc_init_array+0x24>
  401728:	4e0b      	ldr	r6, [pc, #44]	; (401758 <__libc_init_array+0x40>)
  40172a:	4c0c      	ldr	r4, [pc, #48]	; (40175c <__libc_init_array+0x44>)
  40172c:	f000 f8c6 	bl	4018bc <_init>
  401730:	1ba4      	subs	r4, r4, r6
  401732:	10a4      	asrs	r4, r4, #2
  401734:	2500      	movs	r5, #0
  401736:	42a5      	cmp	r5, r4
  401738:	d105      	bne.n	401746 <__libc_init_array+0x2e>
  40173a:	bd70      	pop	{r4, r5, r6, pc}
  40173c:	f856 3025 	ldr.w	r3, [r6, r5, lsl #2]
  401740:	4798      	blx	r3
  401742:	3501      	adds	r5, #1
  401744:	e7ee      	b.n	401724 <__libc_init_array+0xc>
  401746:	f856 3025 	ldr.w	r3, [r6, r5, lsl #2]
  40174a:	4798      	blx	r3
  40174c:	3501      	adds	r5, #1
  40174e:	e7f2      	b.n	401736 <__libc_init_array+0x1e>
  401750:	004018c8 	.word	0x004018c8
  401754:	004018c8 	.word	0x004018c8
  401758:	004018c8 	.word	0x004018c8
  40175c:	004018cc 	.word	0x004018cc
  401760:	682f2e2e 	.word	0x682f2e2e
  401764:	732f6c61 	.word	0x732f6c61
  401768:	682f6372 	.word	0x682f6372
  40176c:	695f6c61 	.word	0x695f6c61
  401770:	00632e6f 	.word	0x00632e6f
  401774:	682f2e2e 	.word	0x682f2e2e
  401778:	732f6c61 	.word	0x732f6c61
  40177c:	682f6372 	.word	0x682f6372
  401780:	725f6c61 	.word	0x725f6c61
  401784:	5f646e61 	.word	0x5f646e61
  401788:	636e7973 	.word	0x636e7973
  40178c:	0000632e 	.word	0x0000632e
  401790:	682f2e2e 	.word	0x682f2e2e
  401794:	732f6c61 	.word	0x732f6c61
  401798:	682f6372 	.word	0x682f6372
  40179c:	735f6c61 	.word	0x735f6c61
  4017a0:	6d5f6970 	.word	0x6d5f6970
  4017a4:	6e79735f 	.word	0x6e79735f
  4017a8:	00632e63 	.word	0x00632e63
  4017ac:	682f2e2e 	.word	0x682f2e2e
  4017b0:	732f6c61 	.word	0x732f6c61
  4017b4:	682f6372 	.word	0x682f6372
  4017b8:	745f6c61 	.word	0x745f6c61
  4017bc:	72656d69 	.word	0x72656d69
  4017c0:	0000632e 	.word	0x0000632e
  4017c4:	682f2e2e 	.word	0x682f2e2e
  4017c8:	732f6c61 	.word	0x732f6c61
  4017cc:	682f6372 	.word	0x682f6372
  4017d0:	755f6c61 	.word	0x755f6c61
  4017d4:	74726173 	.word	0x74726173
  4017d8:	7973615f 	.word	0x7973615f
  4017dc:	632e636e 	.word	0x632e636e
  4017e0:	00000000 	.word	0x00000000
  4017e4:	682f2e2e 	.word	0x682f2e2e
  4017e8:	752f6c61 	.word	0x752f6c61
  4017ec:	736c6974 	.word	0x736c6974
  4017f0:	6372732f 	.word	0x6372732f
  4017f4:	6974752f 	.word	0x6974752f
  4017f8:	6c5f736c 	.word	0x6c5f736c
  4017fc:	2e747369 	.word	0x2e747369
  401800:	00000063 	.word	0x00000063
  401804:	682f2e2e 	.word	0x682f2e2e
  401808:	752f6c61 	.word	0x752f6c61
  40180c:	736c6974 	.word	0x736c6974
  401810:	6372732f 	.word	0x6372732f
  401814:	6974752f 	.word	0x6974752f
  401818:	725f736c 	.word	0x725f736c
  40181c:	62676e69 	.word	0x62676e69
  401820:	65666675 	.word	0x65666675
  401824:	00632e72 	.word	0x00632e72

00401828 <spi_regs>:
  401828:	00000000 80000000 00000001 0496dc02     ................
  401838:	0000ffff 682f2e2e 732f6c70 682f6970     ....../hpl/spi/h
  401848:	735f6c70 632e6970 00000000 682f2e2e     pl_spi.c....../h
  401858:	742f6c70 70682f63 63745f6c 0000632e     pl/tc/hpl_tc.c..
  401868:	682f2e2e 742f6c70 2f676e72 5f6c7068     ../hpl/trng/hpl_
  401878:	676e7274 0000632e                       trng.c..

00401880 <_usarts>:
  401880:	00000001 001008c0 000403d0 682f2e2e     ............../h
  401890:	752f6c70 74726173 6c70682f 6173755f     pl/usart/hpl_usa
  4018a0:	632e7472 00000000 1f1e1d1c 69726553     rt.c........Seri
  4018b0:	72206c61 79646165 00000000              al ready....

004018bc <_init>:
  4018bc:	b5f8      	push	{r3, r4, r5, r6, r7, lr}
  4018be:	bf00      	nop
  4018c0:	bcf8      	pop	{r3, r4, r5, r6, r7}
  4018c2:	bc08      	pop	{r3}
  4018c4:	469e      	mov	lr, r3
  4018c6:	4770      	bx	lr

004018c8 <__init_array_start>:
  4018c8:	0040018d 	.word	0x0040018d

004018cc <_fini>:
  4018cc:	b5f8      	push	{r3, r4, r5, r6, r7, lr}
  4018ce:	bf00      	nop
  4018d0:	bcf8      	pop	{r3, r4, r5, r6, r7}
  4018d2:	bc08      	pop	{r3}
  4018d4:	469e      	mov	lr, r3
  4018d6:	4770      	bx	lr

004018d8 <__fini_array_start>:
  4018d8:	00400169 	.word	0x00400169
